ARM GAS  /tmp/ccZFOTRI.s 			page 1


   1              		.cpu cortex-m4
   2              		.eabi_attribute 27, 1
   3              		.eabi_attribute 28, 1
   4              		.eabi_attribute 20, 1
   5              		.eabi_attribute 21, 1
   6              		.eabi_attribute 23, 3
   7              		.eabi_attribute 24, 1
   8              		.eabi_attribute 25, 1
   9              		.eabi_attribute 26, 1
  10              		.eabi_attribute 30, 6
  11              		.eabi_attribute 34, 1
  12              		.eabi_attribute 18, 4
  13              		.file	"stm32l4xx_hal_flash_ex.c"
  14              		.text
  15              	.Ltext0:
  16              		.cfi_sections	.debug_frame
  17              		.section	.text.HAL_FLASHEx_Erase,"ax",%progbits
  18              		.align	1
  19              		.global	HAL_FLASHEx_Erase
  20              		.arch armv7e-m
  21              		.syntax unified
  22              		.thumb
  23              		.thumb_func
  24              		.fpu fpv4-sp-d16
  26              	HAL_FLASHEx_Erase:
  27              	.LFB130:
  28              		.file 1 "Drivers/STM32L4xx_HAL_Driver/Src/stm32l4xx_hal_flash_ex.c"
   1:Drivers/STM32L4xx_HAL_Driver/Src/stm32l4xx_hal_flash_ex.c **** /**
   2:Drivers/STM32L4xx_HAL_Driver/Src/stm32l4xx_hal_flash_ex.c ****   ******************************************************************************
   3:Drivers/STM32L4xx_HAL_Driver/Src/stm32l4xx_hal_flash_ex.c ****   * @file    stm32l4xx_hal_flash_ex.c
   4:Drivers/STM32L4xx_HAL_Driver/Src/stm32l4xx_hal_flash_ex.c ****   * @author  MCD Application Team
   5:Drivers/STM32L4xx_HAL_Driver/Src/stm32l4xx_hal_flash_ex.c ****   * @brief   Extended FLASH HAL module driver.
   6:Drivers/STM32L4xx_HAL_Driver/Src/stm32l4xx_hal_flash_ex.c ****   *          This file provides firmware functions to manage the following
   7:Drivers/STM32L4xx_HAL_Driver/Src/stm32l4xx_hal_flash_ex.c ****   *          functionalities of the FLASH extended peripheral:
   8:Drivers/STM32L4xx_HAL_Driver/Src/stm32l4xx_hal_flash_ex.c ****   *           + Extended programming operations functions
   9:Drivers/STM32L4xx_HAL_Driver/Src/stm32l4xx_hal_flash_ex.c ****   *
  10:Drivers/STM32L4xx_HAL_Driver/Src/stm32l4xx_hal_flash_ex.c ****  @verbatim
  11:Drivers/STM32L4xx_HAL_Driver/Src/stm32l4xx_hal_flash_ex.c ****  ==============================================================================
  12:Drivers/STM32L4xx_HAL_Driver/Src/stm32l4xx_hal_flash_ex.c ****                    ##### Flash Extended features #####
  13:Drivers/STM32L4xx_HAL_Driver/Src/stm32l4xx_hal_flash_ex.c ****   ==============================================================================
  14:Drivers/STM32L4xx_HAL_Driver/Src/stm32l4xx_hal_flash_ex.c **** 
  15:Drivers/STM32L4xx_HAL_Driver/Src/stm32l4xx_hal_flash_ex.c ****   [..] Comparing to other previous devices, the FLASH interface for STM32L4xx
  16:Drivers/STM32L4xx_HAL_Driver/Src/stm32l4xx_hal_flash_ex.c ****        devices contains the following additional features
  17:Drivers/STM32L4xx_HAL_Driver/Src/stm32l4xx_hal_flash_ex.c **** 
  18:Drivers/STM32L4xx_HAL_Driver/Src/stm32l4xx_hal_flash_ex.c ****        (+) Capacity up to 2 Mbyte with dual bank architecture supporting read-while-write
  19:Drivers/STM32L4xx_HAL_Driver/Src/stm32l4xx_hal_flash_ex.c ****            capability (RWW)
  20:Drivers/STM32L4xx_HAL_Driver/Src/stm32l4xx_hal_flash_ex.c ****        (+) Dual bank memory organization
  21:Drivers/STM32L4xx_HAL_Driver/Src/stm32l4xx_hal_flash_ex.c ****        (+) PCROP protection for all banks
  22:Drivers/STM32L4xx_HAL_Driver/Src/stm32l4xx_hal_flash_ex.c **** 
  23:Drivers/STM32L4xx_HAL_Driver/Src/stm32l4xx_hal_flash_ex.c ****                         ##### How to use this driver #####
  24:Drivers/STM32L4xx_HAL_Driver/Src/stm32l4xx_hal_flash_ex.c ****  ==============================================================================
  25:Drivers/STM32L4xx_HAL_Driver/Src/stm32l4xx_hal_flash_ex.c ****   [..] This driver provides functions to configure and program the FLASH memory
  26:Drivers/STM32L4xx_HAL_Driver/Src/stm32l4xx_hal_flash_ex.c ****        of all STM32L4xx devices. It includes
  27:Drivers/STM32L4xx_HAL_Driver/Src/stm32l4xx_hal_flash_ex.c ****       (#) Flash Memory Erase functions:
  28:Drivers/STM32L4xx_HAL_Driver/Src/stm32l4xx_hal_flash_ex.c ****            (++) Lock and Unlock the FLASH interface using HAL_FLASH_Unlock() and
  29:Drivers/STM32L4xx_HAL_Driver/Src/stm32l4xx_hal_flash_ex.c ****                 HAL_FLASH_Lock() functions
  30:Drivers/STM32L4xx_HAL_Driver/Src/stm32l4xx_hal_flash_ex.c ****            (++) Erase function: Erase page, erase all sectors
ARM GAS  /tmp/ccZFOTRI.s 			page 2


  31:Drivers/STM32L4xx_HAL_Driver/Src/stm32l4xx_hal_flash_ex.c ****            (++) There are two modes of erase :
  32:Drivers/STM32L4xx_HAL_Driver/Src/stm32l4xx_hal_flash_ex.c ****              (+++) Polling Mode using HAL_FLASHEx_Erase()
  33:Drivers/STM32L4xx_HAL_Driver/Src/stm32l4xx_hal_flash_ex.c ****              (+++) Interrupt Mode using HAL_FLASHEx_Erase_IT()
  34:Drivers/STM32L4xx_HAL_Driver/Src/stm32l4xx_hal_flash_ex.c **** 
  35:Drivers/STM32L4xx_HAL_Driver/Src/stm32l4xx_hal_flash_ex.c ****       (#) Option Bytes Programming function: Use HAL_FLASHEx_OBProgram() to :
  36:Drivers/STM32L4xx_HAL_Driver/Src/stm32l4xx_hal_flash_ex.c ****         (++) Set/Reset the write protection
  37:Drivers/STM32L4xx_HAL_Driver/Src/stm32l4xx_hal_flash_ex.c ****         (++) Set the Read protection Level
  38:Drivers/STM32L4xx_HAL_Driver/Src/stm32l4xx_hal_flash_ex.c ****         (++) Program the user Option Bytes
  39:Drivers/STM32L4xx_HAL_Driver/Src/stm32l4xx_hal_flash_ex.c ****         (++) Configure the PCROP protection
  40:Drivers/STM32L4xx_HAL_Driver/Src/stm32l4xx_hal_flash_ex.c **** 
  41:Drivers/STM32L4xx_HAL_Driver/Src/stm32l4xx_hal_flash_ex.c ****       (#) Get Option Bytes Configuration function: Use HAL_FLASHEx_OBGetConfig() to :
  42:Drivers/STM32L4xx_HAL_Driver/Src/stm32l4xx_hal_flash_ex.c ****         (++) Get the value of a write protection area
  43:Drivers/STM32L4xx_HAL_Driver/Src/stm32l4xx_hal_flash_ex.c ****         (++) Know if the read protection is activated
  44:Drivers/STM32L4xx_HAL_Driver/Src/stm32l4xx_hal_flash_ex.c ****         (++) Get the value of the user Option Bytes
  45:Drivers/STM32L4xx_HAL_Driver/Src/stm32l4xx_hal_flash_ex.c ****         (++) Get the value of a PCROP area
  46:Drivers/STM32L4xx_HAL_Driver/Src/stm32l4xx_hal_flash_ex.c **** 
  47:Drivers/STM32L4xx_HAL_Driver/Src/stm32l4xx_hal_flash_ex.c ****  @endverbatim
  48:Drivers/STM32L4xx_HAL_Driver/Src/stm32l4xx_hal_flash_ex.c ****   ******************************************************************************
  49:Drivers/STM32L4xx_HAL_Driver/Src/stm32l4xx_hal_flash_ex.c ****   * @attention
  50:Drivers/STM32L4xx_HAL_Driver/Src/stm32l4xx_hal_flash_ex.c ****   *
  51:Drivers/STM32L4xx_HAL_Driver/Src/stm32l4xx_hal_flash_ex.c ****   * <h2><center>&copy; Copyright (c) 2017 STMicroelectronics.
  52:Drivers/STM32L4xx_HAL_Driver/Src/stm32l4xx_hal_flash_ex.c ****   * All rights reserved.</center></h2>
  53:Drivers/STM32L4xx_HAL_Driver/Src/stm32l4xx_hal_flash_ex.c ****   *
  54:Drivers/STM32L4xx_HAL_Driver/Src/stm32l4xx_hal_flash_ex.c ****   * This software component is licensed by ST under BSD 3-Clause license,
  55:Drivers/STM32L4xx_HAL_Driver/Src/stm32l4xx_hal_flash_ex.c ****   * the "License"; You may not use this file except in compliance with the
  56:Drivers/STM32L4xx_HAL_Driver/Src/stm32l4xx_hal_flash_ex.c ****   * License. You may obtain a copy of the License at:
  57:Drivers/STM32L4xx_HAL_Driver/Src/stm32l4xx_hal_flash_ex.c ****   *                       opensource.org/licenses/BSD-3-Clause
  58:Drivers/STM32L4xx_HAL_Driver/Src/stm32l4xx_hal_flash_ex.c ****   *
  59:Drivers/STM32L4xx_HAL_Driver/Src/stm32l4xx_hal_flash_ex.c ****   ******************************************************************************
  60:Drivers/STM32L4xx_HAL_Driver/Src/stm32l4xx_hal_flash_ex.c ****   */
  61:Drivers/STM32L4xx_HAL_Driver/Src/stm32l4xx_hal_flash_ex.c **** 
  62:Drivers/STM32L4xx_HAL_Driver/Src/stm32l4xx_hal_flash_ex.c **** /* Includes ------------------------------------------------------------------*/
  63:Drivers/STM32L4xx_HAL_Driver/Src/stm32l4xx_hal_flash_ex.c **** #include "stm32l4xx_hal.h"
  64:Drivers/STM32L4xx_HAL_Driver/Src/stm32l4xx_hal_flash_ex.c **** 
  65:Drivers/STM32L4xx_HAL_Driver/Src/stm32l4xx_hal_flash_ex.c **** /** @addtogroup STM32L4xx_HAL_Driver
  66:Drivers/STM32L4xx_HAL_Driver/Src/stm32l4xx_hal_flash_ex.c ****   * @{
  67:Drivers/STM32L4xx_HAL_Driver/Src/stm32l4xx_hal_flash_ex.c ****   */
  68:Drivers/STM32L4xx_HAL_Driver/Src/stm32l4xx_hal_flash_ex.c **** 
  69:Drivers/STM32L4xx_HAL_Driver/Src/stm32l4xx_hal_flash_ex.c **** /** @defgroup FLASHEx FLASHEx
  70:Drivers/STM32L4xx_HAL_Driver/Src/stm32l4xx_hal_flash_ex.c ****   * @brief FLASH Extended HAL module driver
  71:Drivers/STM32L4xx_HAL_Driver/Src/stm32l4xx_hal_flash_ex.c ****   * @{
  72:Drivers/STM32L4xx_HAL_Driver/Src/stm32l4xx_hal_flash_ex.c ****   */
  73:Drivers/STM32L4xx_HAL_Driver/Src/stm32l4xx_hal_flash_ex.c **** 
  74:Drivers/STM32L4xx_HAL_Driver/Src/stm32l4xx_hal_flash_ex.c **** #ifdef HAL_FLASH_MODULE_ENABLED
  75:Drivers/STM32L4xx_HAL_Driver/Src/stm32l4xx_hal_flash_ex.c **** 
  76:Drivers/STM32L4xx_HAL_Driver/Src/stm32l4xx_hal_flash_ex.c **** /* Private typedef -----------------------------------------------------------*/
  77:Drivers/STM32L4xx_HAL_Driver/Src/stm32l4xx_hal_flash_ex.c **** /* Private define ------------------------------------------------------------*/
  78:Drivers/STM32L4xx_HAL_Driver/Src/stm32l4xx_hal_flash_ex.c **** /* Private macro -------------------------------------------------------------*/
  79:Drivers/STM32L4xx_HAL_Driver/Src/stm32l4xx_hal_flash_ex.c **** /* Private variables ---------------------------------------------------------*/
  80:Drivers/STM32L4xx_HAL_Driver/Src/stm32l4xx_hal_flash_ex.c **** /* Private function prototypes -----------------------------------------------*/
  81:Drivers/STM32L4xx_HAL_Driver/Src/stm32l4xx_hal_flash_ex.c **** /** @defgroup FLASHEx_Private_Functions FLASHEx Private Functions
  82:Drivers/STM32L4xx_HAL_Driver/Src/stm32l4xx_hal_flash_ex.c ****  * @{
  83:Drivers/STM32L4xx_HAL_Driver/Src/stm32l4xx_hal_flash_ex.c ****  */
  84:Drivers/STM32L4xx_HAL_Driver/Src/stm32l4xx_hal_flash_ex.c **** static void              FLASH_MassErase(uint32_t Banks);
  85:Drivers/STM32L4xx_HAL_Driver/Src/stm32l4xx_hal_flash_ex.c **** static HAL_StatusTypeDef FLASH_OB_WRPConfig(uint32_t WRPArea, uint32_t WRPStartOffset, uint32_t WRD
  86:Drivers/STM32L4xx_HAL_Driver/Src/stm32l4xx_hal_flash_ex.c **** static HAL_StatusTypeDef FLASH_OB_RDPConfig(uint32_t RDPLevel);
  87:Drivers/STM32L4xx_HAL_Driver/Src/stm32l4xx_hal_flash_ex.c **** static HAL_StatusTypeDef FLASH_OB_UserConfig(uint32_t UserType, uint32_t UserConfig);
ARM GAS  /tmp/ccZFOTRI.s 			page 3


  88:Drivers/STM32L4xx_HAL_Driver/Src/stm32l4xx_hal_flash_ex.c **** static HAL_StatusTypeDef FLASH_OB_PCROPConfig(uint32_t PCROPConfig, uint32_t PCROPStartAddr, uint32
  89:Drivers/STM32L4xx_HAL_Driver/Src/stm32l4xx_hal_flash_ex.c **** static void              FLASH_OB_GetWRP(uint32_t WRPArea, uint32_t * WRPStartOffset, uint32_t * WR
  90:Drivers/STM32L4xx_HAL_Driver/Src/stm32l4xx_hal_flash_ex.c **** static uint32_t          FLASH_OB_GetRDP(void);
  91:Drivers/STM32L4xx_HAL_Driver/Src/stm32l4xx_hal_flash_ex.c **** static uint32_t          FLASH_OB_GetUser(void);
  92:Drivers/STM32L4xx_HAL_Driver/Src/stm32l4xx_hal_flash_ex.c **** static void              FLASH_OB_GetPCROP(uint32_t * PCROPConfig, uint32_t * PCROPStartAddr, uint3
  93:Drivers/STM32L4xx_HAL_Driver/Src/stm32l4xx_hal_flash_ex.c **** /**
  94:Drivers/STM32L4xx_HAL_Driver/Src/stm32l4xx_hal_flash_ex.c ****   * @}
  95:Drivers/STM32L4xx_HAL_Driver/Src/stm32l4xx_hal_flash_ex.c ****   */
  96:Drivers/STM32L4xx_HAL_Driver/Src/stm32l4xx_hal_flash_ex.c **** 
  97:Drivers/STM32L4xx_HAL_Driver/Src/stm32l4xx_hal_flash_ex.c **** /* Exported functions -------------------------------------------------------*/
  98:Drivers/STM32L4xx_HAL_Driver/Src/stm32l4xx_hal_flash_ex.c **** /** @defgroup FLASHEx_Exported_Functions FLASHEx Exported Functions
  99:Drivers/STM32L4xx_HAL_Driver/Src/stm32l4xx_hal_flash_ex.c ****   * @{
 100:Drivers/STM32L4xx_HAL_Driver/Src/stm32l4xx_hal_flash_ex.c ****   */
 101:Drivers/STM32L4xx_HAL_Driver/Src/stm32l4xx_hal_flash_ex.c **** 
 102:Drivers/STM32L4xx_HAL_Driver/Src/stm32l4xx_hal_flash_ex.c **** /** @defgroup FLASHEx_Exported_Functions_Group1 Extended IO operation functions
 103:Drivers/STM32L4xx_HAL_Driver/Src/stm32l4xx_hal_flash_ex.c ****  *  @brief   Extended IO operation functions
 104:Drivers/STM32L4xx_HAL_Driver/Src/stm32l4xx_hal_flash_ex.c ****  *
 105:Drivers/STM32L4xx_HAL_Driver/Src/stm32l4xx_hal_flash_ex.c **** @verbatim
 106:Drivers/STM32L4xx_HAL_Driver/Src/stm32l4xx_hal_flash_ex.c ****  ===============================================================================
 107:Drivers/STM32L4xx_HAL_Driver/Src/stm32l4xx_hal_flash_ex.c ****                 ##### Extended programming operation functions #####
 108:Drivers/STM32L4xx_HAL_Driver/Src/stm32l4xx_hal_flash_ex.c ****  ===============================================================================
 109:Drivers/STM32L4xx_HAL_Driver/Src/stm32l4xx_hal_flash_ex.c ****     [..]
 110:Drivers/STM32L4xx_HAL_Driver/Src/stm32l4xx_hal_flash_ex.c ****     This subsection provides a set of functions allowing to manage the Extended FLASH
 111:Drivers/STM32L4xx_HAL_Driver/Src/stm32l4xx_hal_flash_ex.c ****     programming operations Operations.
 112:Drivers/STM32L4xx_HAL_Driver/Src/stm32l4xx_hal_flash_ex.c **** 
 113:Drivers/STM32L4xx_HAL_Driver/Src/stm32l4xx_hal_flash_ex.c **** @endverbatim
 114:Drivers/STM32L4xx_HAL_Driver/Src/stm32l4xx_hal_flash_ex.c ****   * @{
 115:Drivers/STM32L4xx_HAL_Driver/Src/stm32l4xx_hal_flash_ex.c ****   */
 116:Drivers/STM32L4xx_HAL_Driver/Src/stm32l4xx_hal_flash_ex.c **** /**
 117:Drivers/STM32L4xx_HAL_Driver/Src/stm32l4xx_hal_flash_ex.c ****   * @brief  Perform a mass erase or erase the specified FLASH memory pages.
 118:Drivers/STM32L4xx_HAL_Driver/Src/stm32l4xx_hal_flash_ex.c ****   * @param[in]  pEraseInit: pointer to an FLASH_EraseInitTypeDef structure that
 119:Drivers/STM32L4xx_HAL_Driver/Src/stm32l4xx_hal_flash_ex.c ****   *         contains the configuration information for the erasing.
 120:Drivers/STM32L4xx_HAL_Driver/Src/stm32l4xx_hal_flash_ex.c ****   *
 121:Drivers/STM32L4xx_HAL_Driver/Src/stm32l4xx_hal_flash_ex.c ****   * @param[out]  PageError  : pointer to variable that contains the configuration
 122:Drivers/STM32L4xx_HAL_Driver/Src/stm32l4xx_hal_flash_ex.c ****   *         information on faulty page in case of error (0xFFFFFFFF means that all
 123:Drivers/STM32L4xx_HAL_Driver/Src/stm32l4xx_hal_flash_ex.c ****   *         the pages have been correctly erased)
 124:Drivers/STM32L4xx_HAL_Driver/Src/stm32l4xx_hal_flash_ex.c ****   *
 125:Drivers/STM32L4xx_HAL_Driver/Src/stm32l4xx_hal_flash_ex.c ****   * @retval HAL Status
 126:Drivers/STM32L4xx_HAL_Driver/Src/stm32l4xx_hal_flash_ex.c ****   */
 127:Drivers/STM32L4xx_HAL_Driver/Src/stm32l4xx_hal_flash_ex.c **** HAL_StatusTypeDef HAL_FLASHEx_Erase(FLASH_EraseInitTypeDef *pEraseInit, uint32_t *PageError)
 128:Drivers/STM32L4xx_HAL_Driver/Src/stm32l4xx_hal_flash_ex.c **** {
  29              		.loc 1 128 1
  30              		.cfi_startproc
  31              		@ args = 0, pretend = 0, frame = 16
  32              		@ frame_needed = 1, uses_anonymous_args = 0
  33 0000 80B5     		push	{r7, lr}
  34              	.LCFI0:
  35              		.cfi_def_cfa_offset 8
  36              		.cfi_offset 7, -8
  37              		.cfi_offset 14, -4
  38 0002 84B0     		sub	sp, sp, #16
  39              	.LCFI1:
  40              		.cfi_def_cfa_offset 24
  41 0004 00AF     		add	r7, sp, #0
  42              	.LCFI2:
  43              		.cfi_def_cfa_register 7
  44 0006 7860     		str	r0, [r7, #4]
ARM GAS  /tmp/ccZFOTRI.s 			page 4


  45 0008 3960     		str	r1, [r7]
 129:Drivers/STM32L4xx_HAL_Driver/Src/stm32l4xx_hal_flash_ex.c ****   HAL_StatusTypeDef status;
 130:Drivers/STM32L4xx_HAL_Driver/Src/stm32l4xx_hal_flash_ex.c ****   uint32_t page_index;
 131:Drivers/STM32L4xx_HAL_Driver/Src/stm32l4xx_hal_flash_ex.c **** 
 132:Drivers/STM32L4xx_HAL_Driver/Src/stm32l4xx_hal_flash_ex.c ****   /* Process Locked */
 133:Drivers/STM32L4xx_HAL_Driver/Src/stm32l4xx_hal_flash_ex.c ****   __HAL_LOCK(&pFlash);
  46              		.loc 1 133 3
  47 000a 4C4B     		ldr	r3, .L15
  48 000c 1B78     		ldrb	r3, [r3]	@ zero_extendqisi2
  49 000e 012B     		cmp	r3, #1
  50 0010 01D1     		bne	.L2
  51              		.loc 1 133 3 is_stmt 0 discriminator 1
  52 0012 0223     		movs	r3, #2
  53 0014 8DE0     		b	.L3
  54              	.L2:
  55              		.loc 1 133 3 discriminator 2
  56 0016 494B     		ldr	r3, .L15
  57 0018 0122     		movs	r2, #1
  58 001a 1A70     		strb	r2, [r3]
 134:Drivers/STM32L4xx_HAL_Driver/Src/stm32l4xx_hal_flash_ex.c **** 
 135:Drivers/STM32L4xx_HAL_Driver/Src/stm32l4xx_hal_flash_ex.c ****   /* Check the parameters */
 136:Drivers/STM32L4xx_HAL_Driver/Src/stm32l4xx_hal_flash_ex.c ****   assert_param(IS_FLASH_TYPEERASE(pEraseInit->TypeErase));
 137:Drivers/STM32L4xx_HAL_Driver/Src/stm32l4xx_hal_flash_ex.c **** 
 138:Drivers/STM32L4xx_HAL_Driver/Src/stm32l4xx_hal_flash_ex.c ****   /* Wait for last operation to be completed */
 139:Drivers/STM32L4xx_HAL_Driver/Src/stm32l4xx_hal_flash_ex.c ****   status = FLASH_WaitForLastOperation((uint32_t)FLASH_TIMEOUT_VALUE);
  59              		.loc 1 139 12 is_stmt 1 discriminator 2
  60 001c 4CF25030 		movw	r0, #50000
  61 0020 FFF7FEFF 		bl	FLASH_WaitForLastOperation
  62 0024 0346     		mov	r3, r0
  63 0026 FB73     		strb	r3, [r7, #15]
 140:Drivers/STM32L4xx_HAL_Driver/Src/stm32l4xx_hal_flash_ex.c **** 
 141:Drivers/STM32L4xx_HAL_Driver/Src/stm32l4xx_hal_flash_ex.c ****   if (status == HAL_OK)
  64              		.loc 1 141 6 discriminator 2
  65 0028 FB7B     		ldrb	r3, [r7, #15]	@ zero_extendqisi2
  66 002a 002B     		cmp	r3, #0
  67 002c 7DD1     		bne	.L4
 142:Drivers/STM32L4xx_HAL_Driver/Src/stm32l4xx_hal_flash_ex.c ****   {
 143:Drivers/STM32L4xx_HAL_Driver/Src/stm32l4xx_hal_flash_ex.c ****     pFlash.ErrorCode = HAL_FLASH_ERROR_NONE;
  68              		.loc 1 143 22
  69 002e 434B     		ldr	r3, .L15
  70 0030 0022     		movs	r2, #0
  71 0032 5A60     		str	r2, [r3, #4]
 144:Drivers/STM32L4xx_HAL_Driver/Src/stm32l4xx_hal_flash_ex.c **** 
 145:Drivers/STM32L4xx_HAL_Driver/Src/stm32l4xx_hal_flash_ex.c ****     /* Deactivate the cache if they are activated to avoid data misbehavior */
 146:Drivers/STM32L4xx_HAL_Driver/Src/stm32l4xx_hal_flash_ex.c ****     if(READ_BIT(FLASH->ACR, FLASH_ACR_ICEN) != 0U)
  72              		.loc 1 146 8
  73 0034 424B     		ldr	r3, .L15+4
  74 0036 1B68     		ldr	r3, [r3]
  75 0038 03F40073 		and	r3, r3, #512
  76              		.loc 1 146 7
  77 003c 002B     		cmp	r3, #0
  78 003e 19D0     		beq	.L5
 147:Drivers/STM32L4xx_HAL_Driver/Src/stm32l4xx_hal_flash_ex.c ****     {
 148:Drivers/STM32L4xx_HAL_Driver/Src/stm32l4xx_hal_flash_ex.c ****       /* Disable instruction cache  */
 149:Drivers/STM32L4xx_HAL_Driver/Src/stm32l4xx_hal_flash_ex.c ****       __HAL_FLASH_INSTRUCTION_CACHE_DISABLE();
  79              		.loc 1 149 7
  80 0040 3F4B     		ldr	r3, .L15+4
ARM GAS  /tmp/ccZFOTRI.s 			page 5


  81 0042 1B68     		ldr	r3, [r3]
  82 0044 3E4A     		ldr	r2, .L15+4
  83 0046 23F40073 		bic	r3, r3, #512
  84 004a 1360     		str	r3, [r2]
 150:Drivers/STM32L4xx_HAL_Driver/Src/stm32l4xx_hal_flash_ex.c **** 
 151:Drivers/STM32L4xx_HAL_Driver/Src/stm32l4xx_hal_flash_ex.c ****       if(READ_BIT(FLASH->ACR, FLASH_ACR_DCEN) != 0U)
  85              		.loc 1 151 10
  86 004c 3C4B     		ldr	r3, .L15+4
  87 004e 1B68     		ldr	r3, [r3]
  88 0050 03F48063 		and	r3, r3, #1024
  89              		.loc 1 151 9
  90 0054 002B     		cmp	r3, #0
  91 0056 09D0     		beq	.L6
 152:Drivers/STM32L4xx_HAL_Driver/Src/stm32l4xx_hal_flash_ex.c ****       {
 153:Drivers/STM32L4xx_HAL_Driver/Src/stm32l4xx_hal_flash_ex.c ****         /* Disable data cache  */
 154:Drivers/STM32L4xx_HAL_Driver/Src/stm32l4xx_hal_flash_ex.c ****         __HAL_FLASH_DATA_CACHE_DISABLE();
  92              		.loc 1 154 9
  93 0058 394B     		ldr	r3, .L15+4
  94 005a 1B68     		ldr	r3, [r3]
  95 005c 384A     		ldr	r2, .L15+4
  96 005e 23F48063 		bic	r3, r3, #1024
  97 0062 1360     		str	r3, [r2]
 155:Drivers/STM32L4xx_HAL_Driver/Src/stm32l4xx_hal_flash_ex.c ****         pFlash.CacheToReactivate = FLASH_CACHE_ICACHE_DCACHE_ENABLED;
  98              		.loc 1 155 34
  99 0064 354B     		ldr	r3, .L15
 100 0066 0322     		movs	r2, #3
 101 0068 1A77     		strb	r2, [r3, #28]
 102 006a 16E0     		b	.L8
 103              	.L6:
 156:Drivers/STM32L4xx_HAL_Driver/Src/stm32l4xx_hal_flash_ex.c ****       }
 157:Drivers/STM32L4xx_HAL_Driver/Src/stm32l4xx_hal_flash_ex.c ****       else
 158:Drivers/STM32L4xx_HAL_Driver/Src/stm32l4xx_hal_flash_ex.c ****       {
 159:Drivers/STM32L4xx_HAL_Driver/Src/stm32l4xx_hal_flash_ex.c ****         pFlash.CacheToReactivate = FLASH_CACHE_ICACHE_ENABLED;
 104              		.loc 1 159 34
 105 006c 334B     		ldr	r3, .L15
 106 006e 0122     		movs	r2, #1
 107 0070 1A77     		strb	r2, [r3, #28]
 108 0072 12E0     		b	.L8
 109              	.L5:
 160:Drivers/STM32L4xx_HAL_Driver/Src/stm32l4xx_hal_flash_ex.c ****       }
 161:Drivers/STM32L4xx_HAL_Driver/Src/stm32l4xx_hal_flash_ex.c ****     }
 162:Drivers/STM32L4xx_HAL_Driver/Src/stm32l4xx_hal_flash_ex.c ****     else if(READ_BIT(FLASH->ACR, FLASH_ACR_DCEN) != 0U)
 110              		.loc 1 162 13
 111 0074 324B     		ldr	r3, .L15+4
 112 0076 1B68     		ldr	r3, [r3]
 113 0078 03F48063 		and	r3, r3, #1024
 114              		.loc 1 162 12
 115 007c 002B     		cmp	r3, #0
 116 007e 09D0     		beq	.L9
 163:Drivers/STM32L4xx_HAL_Driver/Src/stm32l4xx_hal_flash_ex.c ****     {
 164:Drivers/STM32L4xx_HAL_Driver/Src/stm32l4xx_hal_flash_ex.c ****       /* Disable data cache  */
 165:Drivers/STM32L4xx_HAL_Driver/Src/stm32l4xx_hal_flash_ex.c ****       __HAL_FLASH_DATA_CACHE_DISABLE();
 117              		.loc 1 165 7
 118 0080 2F4B     		ldr	r3, .L15+4
 119 0082 1B68     		ldr	r3, [r3]
 120 0084 2E4A     		ldr	r2, .L15+4
 121 0086 23F48063 		bic	r3, r3, #1024
ARM GAS  /tmp/ccZFOTRI.s 			page 6


 122 008a 1360     		str	r3, [r2]
 166:Drivers/STM32L4xx_HAL_Driver/Src/stm32l4xx_hal_flash_ex.c ****       pFlash.CacheToReactivate = FLASH_CACHE_DCACHE_ENABLED;
 123              		.loc 1 166 32
 124 008c 2B4B     		ldr	r3, .L15
 125 008e 0222     		movs	r2, #2
 126 0090 1A77     		strb	r2, [r3, #28]
 127 0092 02E0     		b	.L8
 128              	.L9:
 167:Drivers/STM32L4xx_HAL_Driver/Src/stm32l4xx_hal_flash_ex.c ****     }
 168:Drivers/STM32L4xx_HAL_Driver/Src/stm32l4xx_hal_flash_ex.c ****     else
 169:Drivers/STM32L4xx_HAL_Driver/Src/stm32l4xx_hal_flash_ex.c ****     {
 170:Drivers/STM32L4xx_HAL_Driver/Src/stm32l4xx_hal_flash_ex.c ****       pFlash.CacheToReactivate = FLASH_CACHE_DISABLED;
 129              		.loc 1 170 32
 130 0094 294B     		ldr	r3, .L15
 131 0096 0022     		movs	r2, #0
 132 0098 1A77     		strb	r2, [r3, #28]
 133              	.L8:
 171:Drivers/STM32L4xx_HAL_Driver/Src/stm32l4xx_hal_flash_ex.c ****     }
 172:Drivers/STM32L4xx_HAL_Driver/Src/stm32l4xx_hal_flash_ex.c **** 
 173:Drivers/STM32L4xx_HAL_Driver/Src/stm32l4xx_hal_flash_ex.c ****     if (pEraseInit->TypeErase == FLASH_TYPEERASE_MASSERASE)
 134              		.loc 1 173 19
 135 009a 7B68     		ldr	r3, [r7, #4]
 136 009c 1B68     		ldr	r3, [r3]
 137              		.loc 1 173 8
 138 009e 012B     		cmp	r3, #1
 139 00a0 13D1     		bne	.L10
 174:Drivers/STM32L4xx_HAL_Driver/Src/stm32l4xx_hal_flash_ex.c ****     {
 175:Drivers/STM32L4xx_HAL_Driver/Src/stm32l4xx_hal_flash_ex.c ****       /* Mass erase to be done */
 176:Drivers/STM32L4xx_HAL_Driver/Src/stm32l4xx_hal_flash_ex.c ****       FLASH_MassErase(pEraseInit->Banks);
 140              		.loc 1 176 7
 141 00a2 7B68     		ldr	r3, [r7, #4]
 142 00a4 5B68     		ldr	r3, [r3, #4]
 143 00a6 1846     		mov	r0, r3
 144 00a8 FFF7FEFF 		bl	FLASH_MassErase
 177:Drivers/STM32L4xx_HAL_Driver/Src/stm32l4xx_hal_flash_ex.c **** 
 178:Drivers/STM32L4xx_HAL_Driver/Src/stm32l4xx_hal_flash_ex.c ****       /* Wait for last operation to be completed */
 179:Drivers/STM32L4xx_HAL_Driver/Src/stm32l4xx_hal_flash_ex.c ****       status = FLASH_WaitForLastOperation((uint32_t)FLASH_TIMEOUT_VALUE);
 145              		.loc 1 179 16
 146 00ac 4CF25030 		movw	r0, #50000
 147 00b0 FFF7FEFF 		bl	FLASH_WaitForLastOperation
 148 00b4 0346     		mov	r3, r0
 149 00b6 FB73     		strb	r3, [r7, #15]
 180:Drivers/STM32L4xx_HAL_Driver/Src/stm32l4xx_hal_flash_ex.c **** 
 181:Drivers/STM32L4xx_HAL_Driver/Src/stm32l4xx_hal_flash_ex.c **** #if defined (STM32L471xx) || defined (STM32L475xx) || defined (STM32L476xx) || defined (STM32L485xx
 182:Drivers/STM32L4xx_HAL_Driver/Src/stm32l4xx_hal_flash_ex.c ****     defined (STM32L496xx) || defined (STM32L4A6xx) || \
 183:Drivers/STM32L4xx_HAL_Driver/Src/stm32l4xx_hal_flash_ex.c ****     defined (STM32L4R5xx) || defined (STM32L4R7xx) || defined (STM32L4R9xx) || defined (STM32L4S5xx
 184:Drivers/STM32L4xx_HAL_Driver/Src/stm32l4xx_hal_flash_ex.c ****       /* If the erase operation is completed, disable the MER1 and MER2 Bits */
 185:Drivers/STM32L4xx_HAL_Driver/Src/stm32l4xx_hal_flash_ex.c ****       CLEAR_BIT(FLASH->CR, (FLASH_CR_MER1 | FLASH_CR_MER2));
 150              		.loc 1 185 7
 151 00b8 214B     		ldr	r3, .L15+4
 152 00ba 5B69     		ldr	r3, [r3, #20]
 153 00bc 204A     		ldr	r2, .L15+4
 154 00be 23F40043 		bic	r3, r3, #32768
 155 00c2 23F00403 		bic	r3, r3, #4
 156 00c6 5361     		str	r3, [r2, #20]
 157 00c8 2DE0     		b	.L11
 158              	.L10:
ARM GAS  /tmp/ccZFOTRI.s 			page 7


 186:Drivers/STM32L4xx_HAL_Driver/Src/stm32l4xx_hal_flash_ex.c **** #else
 187:Drivers/STM32L4xx_HAL_Driver/Src/stm32l4xx_hal_flash_ex.c ****       /* If the erase operation is completed, disable the MER1 Bit */
 188:Drivers/STM32L4xx_HAL_Driver/Src/stm32l4xx_hal_flash_ex.c ****       CLEAR_BIT(FLASH->CR, (FLASH_CR_MER1));
 189:Drivers/STM32L4xx_HAL_Driver/Src/stm32l4xx_hal_flash_ex.c **** #endif
 190:Drivers/STM32L4xx_HAL_Driver/Src/stm32l4xx_hal_flash_ex.c ****     }
 191:Drivers/STM32L4xx_HAL_Driver/Src/stm32l4xx_hal_flash_ex.c ****     else
 192:Drivers/STM32L4xx_HAL_Driver/Src/stm32l4xx_hal_flash_ex.c ****     {
 193:Drivers/STM32L4xx_HAL_Driver/Src/stm32l4xx_hal_flash_ex.c ****       /*Initialization of PageError variable*/
 194:Drivers/STM32L4xx_HAL_Driver/Src/stm32l4xx_hal_flash_ex.c ****       *PageError = 0xFFFFFFFFU;
 159              		.loc 1 194 18
 160 00ca 3B68     		ldr	r3, [r7]
 161 00cc 4FF0FF32 		mov	r2, #-1
 162 00d0 1A60     		str	r2, [r3]
 195:Drivers/STM32L4xx_HAL_Driver/Src/stm32l4xx_hal_flash_ex.c **** 
 196:Drivers/STM32L4xx_HAL_Driver/Src/stm32l4xx_hal_flash_ex.c ****       for(page_index = pEraseInit->Page; page_index < (pEraseInit->Page + pEraseInit->NbPages); pag
 163              		.loc 1 196 22
 164 00d2 7B68     		ldr	r3, [r7, #4]
 165 00d4 9B68     		ldr	r3, [r3, #8]
 166 00d6 BB60     		str	r3, [r7, #8]
 167              		.loc 1 196 7
 168 00d8 1DE0     		b	.L12
 169              	.L14:
 197:Drivers/STM32L4xx_HAL_Driver/Src/stm32l4xx_hal_flash_ex.c ****       {
 198:Drivers/STM32L4xx_HAL_Driver/Src/stm32l4xx_hal_flash_ex.c ****         FLASH_PageErase(page_index, pEraseInit->Banks);
 170              		.loc 1 198 9
 171 00da 7B68     		ldr	r3, [r7, #4]
 172 00dc 5B68     		ldr	r3, [r3, #4]
 173 00de 1946     		mov	r1, r3
 174 00e0 B868     		ldr	r0, [r7, #8]
 175 00e2 FFF7FEFF 		bl	FLASH_PageErase
 199:Drivers/STM32L4xx_HAL_Driver/Src/stm32l4xx_hal_flash_ex.c **** 
 200:Drivers/STM32L4xx_HAL_Driver/Src/stm32l4xx_hal_flash_ex.c ****         /* Wait for last operation to be completed */
 201:Drivers/STM32L4xx_HAL_Driver/Src/stm32l4xx_hal_flash_ex.c ****         status = FLASH_WaitForLastOperation((uint32_t)FLASH_TIMEOUT_VALUE);
 176              		.loc 1 201 18
 177 00e6 4CF25030 		movw	r0, #50000
 178 00ea FFF7FEFF 		bl	FLASH_WaitForLastOperation
 179 00ee 0346     		mov	r3, r0
 180 00f0 FB73     		strb	r3, [r7, #15]
 202:Drivers/STM32L4xx_HAL_Driver/Src/stm32l4xx_hal_flash_ex.c **** 
 203:Drivers/STM32L4xx_HAL_Driver/Src/stm32l4xx_hal_flash_ex.c ****         /* If the erase operation is completed, disable the PER Bit */
 204:Drivers/STM32L4xx_HAL_Driver/Src/stm32l4xx_hal_flash_ex.c ****         CLEAR_BIT(FLASH->CR, (FLASH_CR_PER | FLASH_CR_PNB));
 181              		.loc 1 204 9
 182 00f2 134B     		ldr	r3, .L15+4
 183 00f4 5B69     		ldr	r3, [r3, #20]
 184 00f6 124A     		ldr	r2, .L15+4
 185 00f8 23F4FF63 		bic	r3, r3, #2040
 186 00fc 23F00203 		bic	r3, r3, #2
 187 0100 5361     		str	r3, [r2, #20]
 205:Drivers/STM32L4xx_HAL_Driver/Src/stm32l4xx_hal_flash_ex.c **** 
 206:Drivers/STM32L4xx_HAL_Driver/Src/stm32l4xx_hal_flash_ex.c ****         if (status != HAL_OK)
 188              		.loc 1 206 12
 189 0102 FB7B     		ldrb	r3, [r7, #15]	@ zero_extendqisi2
 190 0104 002B     		cmp	r3, #0
 191 0106 03D0     		beq	.L13
 207:Drivers/STM32L4xx_HAL_Driver/Src/stm32l4xx_hal_flash_ex.c ****         {
 208:Drivers/STM32L4xx_HAL_Driver/Src/stm32l4xx_hal_flash_ex.c ****           /* In case of error, stop erase procedure and return the faulty address */
 209:Drivers/STM32L4xx_HAL_Driver/Src/stm32l4xx_hal_flash_ex.c ****           *PageError = page_index;
ARM GAS  /tmp/ccZFOTRI.s 			page 8


 192              		.loc 1 209 22
 193 0108 3B68     		ldr	r3, [r7]
 194 010a BA68     		ldr	r2, [r7, #8]
 195 010c 1A60     		str	r2, [r3]
 210:Drivers/STM32L4xx_HAL_Driver/Src/stm32l4xx_hal_flash_ex.c ****           break;
 196              		.loc 1 210 11
 197 010e 0AE0     		b	.L11
 198              	.L13:
 196:Drivers/STM32L4xx_HAL_Driver/Src/stm32l4xx_hal_flash_ex.c ****       {
 199              		.loc 1 196 107 discriminator 2
 200 0110 BB68     		ldr	r3, [r7, #8]
 201 0112 0133     		adds	r3, r3, #1
 202 0114 BB60     		str	r3, [r7, #8]
 203              	.L12:
 196:Drivers/STM32L4xx_HAL_Driver/Src/stm32l4xx_hal_flash_ex.c ****       {
 204              		.loc 1 196 66 discriminator 1
 205 0116 7B68     		ldr	r3, [r7, #4]
 206 0118 9A68     		ldr	r2, [r3, #8]
 196:Drivers/STM32L4xx_HAL_Driver/Src/stm32l4xx_hal_flash_ex.c ****       {
 207              		.loc 1 196 85 discriminator 1
 208 011a 7B68     		ldr	r3, [r7, #4]
 209 011c DB68     		ldr	r3, [r3, #12]
 196:Drivers/STM32L4xx_HAL_Driver/Src/stm32l4xx_hal_flash_ex.c ****       {
 210              		.loc 1 196 73 discriminator 1
 211 011e 1344     		add	r3, r3, r2
 196:Drivers/STM32L4xx_HAL_Driver/Src/stm32l4xx_hal_flash_ex.c ****       {
 212              		.loc 1 196 7 discriminator 1
 213 0120 BA68     		ldr	r2, [r7, #8]
 214 0122 9A42     		cmp	r2, r3
 215 0124 D9D3     		bcc	.L14
 216              	.L11:
 211:Drivers/STM32L4xx_HAL_Driver/Src/stm32l4xx_hal_flash_ex.c ****         }
 212:Drivers/STM32L4xx_HAL_Driver/Src/stm32l4xx_hal_flash_ex.c ****       }
 213:Drivers/STM32L4xx_HAL_Driver/Src/stm32l4xx_hal_flash_ex.c ****     }
 214:Drivers/STM32L4xx_HAL_Driver/Src/stm32l4xx_hal_flash_ex.c **** 
 215:Drivers/STM32L4xx_HAL_Driver/Src/stm32l4xx_hal_flash_ex.c ****     /* Flush the caches to be sure of the data consistency */
 216:Drivers/STM32L4xx_HAL_Driver/Src/stm32l4xx_hal_flash_ex.c ****     FLASH_FlushCaches();
 217              		.loc 1 216 5
 218 0126 FFF7FEFF 		bl	FLASH_FlushCaches
 219              	.L4:
 217:Drivers/STM32L4xx_HAL_Driver/Src/stm32l4xx_hal_flash_ex.c ****   }
 218:Drivers/STM32L4xx_HAL_Driver/Src/stm32l4xx_hal_flash_ex.c **** 
 219:Drivers/STM32L4xx_HAL_Driver/Src/stm32l4xx_hal_flash_ex.c ****   /* Process Unlocked */
 220:Drivers/STM32L4xx_HAL_Driver/Src/stm32l4xx_hal_flash_ex.c ****   __HAL_UNLOCK(&pFlash);
 220              		.loc 1 220 3
 221 012a 044B     		ldr	r3, .L15
 222 012c 0022     		movs	r2, #0
 223 012e 1A70     		strb	r2, [r3]
 221:Drivers/STM32L4xx_HAL_Driver/Src/stm32l4xx_hal_flash_ex.c **** 
 222:Drivers/STM32L4xx_HAL_Driver/Src/stm32l4xx_hal_flash_ex.c ****   return status;
 224              		.loc 1 222 10
 225 0130 FB7B     		ldrb	r3, [r7, #15]	@ zero_extendqisi2
 226              	.L3:
 223:Drivers/STM32L4xx_HAL_Driver/Src/stm32l4xx_hal_flash_ex.c **** }
 227              		.loc 1 223 1
 228 0132 1846     		mov	r0, r3
 229 0134 1037     		adds	r7, r7, #16
ARM GAS  /tmp/ccZFOTRI.s 			page 9


 230              	.LCFI3:
 231              		.cfi_def_cfa_offset 8
 232 0136 BD46     		mov	sp, r7
 233              	.LCFI4:
 234              		.cfi_def_cfa_register 13
 235              		@ sp needed
 236 0138 80BD     		pop	{r7, pc}
 237              	.L16:
 238 013a 00BF     		.align	2
 239              	.L15:
 240 013c 00000000 		.word	pFlash
 241 0140 00200240 		.word	1073881088
 242              		.cfi_endproc
 243              	.LFE130:
 245              		.section	.text.HAL_FLASHEx_Erase_IT,"ax",%progbits
 246              		.align	1
 247              		.global	HAL_FLASHEx_Erase_IT
 248              		.syntax unified
 249              		.thumb
 250              		.thumb_func
 251              		.fpu fpv4-sp-d16
 253              	HAL_FLASHEx_Erase_IT:
 254              	.LFB131:
 224:Drivers/STM32L4xx_HAL_Driver/Src/stm32l4xx_hal_flash_ex.c **** 
 225:Drivers/STM32L4xx_HAL_Driver/Src/stm32l4xx_hal_flash_ex.c **** /**
 226:Drivers/STM32L4xx_HAL_Driver/Src/stm32l4xx_hal_flash_ex.c ****   * @brief  Perform a mass erase or erase the specified FLASH memory pages with interrupt enabled.
 227:Drivers/STM32L4xx_HAL_Driver/Src/stm32l4xx_hal_flash_ex.c ****   * @param  pEraseInit: pointer to an FLASH_EraseInitTypeDef structure that
 228:Drivers/STM32L4xx_HAL_Driver/Src/stm32l4xx_hal_flash_ex.c ****   *         contains the configuration information for the erasing.
 229:Drivers/STM32L4xx_HAL_Driver/Src/stm32l4xx_hal_flash_ex.c ****   *
 230:Drivers/STM32L4xx_HAL_Driver/Src/stm32l4xx_hal_flash_ex.c ****   * @retval HAL Status
 231:Drivers/STM32L4xx_HAL_Driver/Src/stm32l4xx_hal_flash_ex.c ****   */
 232:Drivers/STM32L4xx_HAL_Driver/Src/stm32l4xx_hal_flash_ex.c **** HAL_StatusTypeDef HAL_FLASHEx_Erase_IT(FLASH_EraseInitTypeDef *pEraseInit)
 233:Drivers/STM32L4xx_HAL_Driver/Src/stm32l4xx_hal_flash_ex.c **** {
 255              		.loc 1 233 1
 256              		.cfi_startproc
 257              		@ args = 0, pretend = 0, frame = 16
 258              		@ frame_needed = 1, uses_anonymous_args = 0
 259 0000 80B5     		push	{r7, lr}
 260              	.LCFI5:
 261              		.cfi_def_cfa_offset 8
 262              		.cfi_offset 7, -8
 263              		.cfi_offset 14, -4
 264 0002 84B0     		sub	sp, sp, #16
 265              	.LCFI6:
 266              		.cfi_def_cfa_offset 24
 267 0004 00AF     		add	r7, sp, #0
 268              	.LCFI7:
 269              		.cfi_def_cfa_register 7
 270 0006 7860     		str	r0, [r7, #4]
 234:Drivers/STM32L4xx_HAL_Driver/Src/stm32l4xx_hal_flash_ex.c ****   HAL_StatusTypeDef status = HAL_OK;
 271              		.loc 1 234 21
 272 0008 0023     		movs	r3, #0
 273 000a FB73     		strb	r3, [r7, #15]
 235:Drivers/STM32L4xx_HAL_Driver/Src/stm32l4xx_hal_flash_ex.c **** 
 236:Drivers/STM32L4xx_HAL_Driver/Src/stm32l4xx_hal_flash_ex.c ****   /* Process Locked */
 237:Drivers/STM32L4xx_HAL_Driver/Src/stm32l4xx_hal_flash_ex.c ****   __HAL_LOCK(&pFlash);
 274              		.loc 1 237 3
ARM GAS  /tmp/ccZFOTRI.s 			page 10


 275 000c 364B     		ldr	r3, .L28
 276 000e 1B78     		ldrb	r3, [r3]	@ zero_extendqisi2
 277 0010 012B     		cmp	r3, #1
 278 0012 01D1     		bne	.L18
 279              		.loc 1 237 3 is_stmt 0 discriminator 1
 280 0014 0223     		movs	r3, #2
 281 0016 63E0     		b	.L19
 282              	.L18:
 283              		.loc 1 237 3 discriminator 2
 284 0018 334B     		ldr	r3, .L28
 285 001a 0122     		movs	r2, #1
 286 001c 1A70     		strb	r2, [r3]
 238:Drivers/STM32L4xx_HAL_Driver/Src/stm32l4xx_hal_flash_ex.c **** 
 239:Drivers/STM32L4xx_HAL_Driver/Src/stm32l4xx_hal_flash_ex.c ****   /* Check the parameters */
 240:Drivers/STM32L4xx_HAL_Driver/Src/stm32l4xx_hal_flash_ex.c ****   assert_param(IS_FLASH_TYPEERASE(pEraseInit->TypeErase));
 241:Drivers/STM32L4xx_HAL_Driver/Src/stm32l4xx_hal_flash_ex.c **** 
 242:Drivers/STM32L4xx_HAL_Driver/Src/stm32l4xx_hal_flash_ex.c ****   pFlash.ErrorCode = HAL_FLASH_ERROR_NONE;
 287              		.loc 1 242 20 is_stmt 1 discriminator 2
 288 001e 324B     		ldr	r3, .L28
 289 0020 0022     		movs	r2, #0
 290 0022 5A60     		str	r2, [r3, #4]
 243:Drivers/STM32L4xx_HAL_Driver/Src/stm32l4xx_hal_flash_ex.c **** 
 244:Drivers/STM32L4xx_HAL_Driver/Src/stm32l4xx_hal_flash_ex.c ****   /* Deactivate the cache if they are activated to avoid data misbehavior */
 245:Drivers/STM32L4xx_HAL_Driver/Src/stm32l4xx_hal_flash_ex.c ****   if(READ_BIT(FLASH->ACR, FLASH_ACR_ICEN) != 0U)
 291              		.loc 1 245 6 discriminator 2
 292 0024 314B     		ldr	r3, .L28+4
 293 0026 1B68     		ldr	r3, [r3]
 294 0028 03F40073 		and	r3, r3, #512
 295              		.loc 1 245 5 discriminator 2
 296 002c 002B     		cmp	r3, #0
 297 002e 19D0     		beq	.L20
 246:Drivers/STM32L4xx_HAL_Driver/Src/stm32l4xx_hal_flash_ex.c ****   {
 247:Drivers/STM32L4xx_HAL_Driver/Src/stm32l4xx_hal_flash_ex.c ****     /* Disable instruction cache  */
 248:Drivers/STM32L4xx_HAL_Driver/Src/stm32l4xx_hal_flash_ex.c ****     __HAL_FLASH_INSTRUCTION_CACHE_DISABLE();
 298              		.loc 1 248 5
 299 0030 2E4B     		ldr	r3, .L28+4
 300 0032 1B68     		ldr	r3, [r3]
 301 0034 2D4A     		ldr	r2, .L28+4
 302 0036 23F40073 		bic	r3, r3, #512
 303 003a 1360     		str	r3, [r2]
 249:Drivers/STM32L4xx_HAL_Driver/Src/stm32l4xx_hal_flash_ex.c **** 
 250:Drivers/STM32L4xx_HAL_Driver/Src/stm32l4xx_hal_flash_ex.c ****     if(READ_BIT(FLASH->ACR, FLASH_ACR_DCEN) != 0U)
 304              		.loc 1 250 8
 305 003c 2B4B     		ldr	r3, .L28+4
 306 003e 1B68     		ldr	r3, [r3]
 307 0040 03F48063 		and	r3, r3, #1024
 308              		.loc 1 250 7
 309 0044 002B     		cmp	r3, #0
 310 0046 09D0     		beq	.L21
 251:Drivers/STM32L4xx_HAL_Driver/Src/stm32l4xx_hal_flash_ex.c ****     {
 252:Drivers/STM32L4xx_HAL_Driver/Src/stm32l4xx_hal_flash_ex.c ****       /* Disable data cache  */
 253:Drivers/STM32L4xx_HAL_Driver/Src/stm32l4xx_hal_flash_ex.c ****       __HAL_FLASH_DATA_CACHE_DISABLE();
 311              		.loc 1 253 7
 312 0048 284B     		ldr	r3, .L28+4
 313 004a 1B68     		ldr	r3, [r3]
 314 004c 274A     		ldr	r2, .L28+4
 315 004e 23F48063 		bic	r3, r3, #1024
ARM GAS  /tmp/ccZFOTRI.s 			page 11


 316 0052 1360     		str	r3, [r2]
 254:Drivers/STM32L4xx_HAL_Driver/Src/stm32l4xx_hal_flash_ex.c ****       pFlash.CacheToReactivate = FLASH_CACHE_ICACHE_DCACHE_ENABLED;
 317              		.loc 1 254 32
 318 0054 244B     		ldr	r3, .L28
 319 0056 0322     		movs	r2, #3
 320 0058 1A77     		strb	r2, [r3, #28]
 321 005a 16E0     		b	.L27
 322              	.L21:
 255:Drivers/STM32L4xx_HAL_Driver/Src/stm32l4xx_hal_flash_ex.c ****     }
 256:Drivers/STM32L4xx_HAL_Driver/Src/stm32l4xx_hal_flash_ex.c ****     else
 257:Drivers/STM32L4xx_HAL_Driver/Src/stm32l4xx_hal_flash_ex.c ****     {
 258:Drivers/STM32L4xx_HAL_Driver/Src/stm32l4xx_hal_flash_ex.c ****       pFlash.CacheToReactivate = FLASH_CACHE_ICACHE_ENABLED;
 323              		.loc 1 258 32
 324 005c 224B     		ldr	r3, .L28
 325 005e 0122     		movs	r2, #1
 326 0060 1A77     		strb	r2, [r3, #28]
 327 0062 12E0     		b	.L27
 328              	.L20:
 259:Drivers/STM32L4xx_HAL_Driver/Src/stm32l4xx_hal_flash_ex.c ****     }
 260:Drivers/STM32L4xx_HAL_Driver/Src/stm32l4xx_hal_flash_ex.c ****   }
 261:Drivers/STM32L4xx_HAL_Driver/Src/stm32l4xx_hal_flash_ex.c ****   else if(READ_BIT(FLASH->ACR, FLASH_ACR_DCEN) != 0U)
 329              		.loc 1 261 11
 330 0064 214B     		ldr	r3, .L28+4
 331 0066 1B68     		ldr	r3, [r3]
 332 0068 03F48063 		and	r3, r3, #1024
 333              		.loc 1 261 10
 334 006c 002B     		cmp	r3, #0
 335 006e 09D0     		beq	.L24
 262:Drivers/STM32L4xx_HAL_Driver/Src/stm32l4xx_hal_flash_ex.c ****   {
 263:Drivers/STM32L4xx_HAL_Driver/Src/stm32l4xx_hal_flash_ex.c ****     /* Disable data cache  */
 264:Drivers/STM32L4xx_HAL_Driver/Src/stm32l4xx_hal_flash_ex.c ****     __HAL_FLASH_DATA_CACHE_DISABLE();
 336              		.loc 1 264 5
 337 0070 1E4B     		ldr	r3, .L28+4
 338 0072 1B68     		ldr	r3, [r3]
 339 0074 1D4A     		ldr	r2, .L28+4
 340 0076 23F48063 		bic	r3, r3, #1024
 341 007a 1360     		str	r3, [r2]
 265:Drivers/STM32L4xx_HAL_Driver/Src/stm32l4xx_hal_flash_ex.c ****     pFlash.CacheToReactivate = FLASH_CACHE_DCACHE_ENABLED;
 342              		.loc 1 265 30
 343 007c 1A4B     		ldr	r3, .L28
 344 007e 0222     		movs	r2, #2
 345 0080 1A77     		strb	r2, [r3, #28]
 346 0082 02E0     		b	.L27
 347              	.L24:
 266:Drivers/STM32L4xx_HAL_Driver/Src/stm32l4xx_hal_flash_ex.c ****   }
 267:Drivers/STM32L4xx_HAL_Driver/Src/stm32l4xx_hal_flash_ex.c ****   else
 268:Drivers/STM32L4xx_HAL_Driver/Src/stm32l4xx_hal_flash_ex.c ****   {
 269:Drivers/STM32L4xx_HAL_Driver/Src/stm32l4xx_hal_flash_ex.c ****     pFlash.CacheToReactivate = FLASH_CACHE_DISABLED;
 348              		.loc 1 269 30
 349 0084 184B     		ldr	r3, .L28
 350 0086 0022     		movs	r2, #0
 351 0088 1A77     		strb	r2, [r3, #28]
 352              	.L27:
 270:Drivers/STM32L4xx_HAL_Driver/Src/stm32l4xx_hal_flash_ex.c ****   }
 271:Drivers/STM32L4xx_HAL_Driver/Src/stm32l4xx_hal_flash_ex.c **** 
 272:Drivers/STM32L4xx_HAL_Driver/Src/stm32l4xx_hal_flash_ex.c ****   /* Enable End of Operation and Error interrupts */
 273:Drivers/STM32L4xx_HAL_Driver/Src/stm32l4xx_hal_flash_ex.c ****   __HAL_FLASH_ENABLE_IT(FLASH_IT_EOP | FLASH_IT_OPERR);
ARM GAS  /tmp/ccZFOTRI.s 			page 12


 353              		.loc 1 273 3 discriminator 4
 354 008a 184B     		ldr	r3, .L28+4
 355 008c 5B69     		ldr	r3, [r3, #20]
 356 008e 174A     		ldr	r2, .L28+4
 357 0090 43F04073 		orr	r3, r3, #50331648
 358 0094 5361     		str	r3, [r2, #20]
 274:Drivers/STM32L4xx_HAL_Driver/Src/stm32l4xx_hal_flash_ex.c **** 
 275:Drivers/STM32L4xx_HAL_Driver/Src/stm32l4xx_hal_flash_ex.c ****   pFlash.Bank = pEraseInit->Banks;
 359              		.loc 1 275 27 discriminator 4
 360 0096 7B68     		ldr	r3, [r7, #4]
 361 0098 5B68     		ldr	r3, [r3, #4]
 362              		.loc 1 275 15 discriminator 4
 363 009a 134A     		ldr	r2, .L28
 364 009c 1361     		str	r3, [r2, #16]
 276:Drivers/STM32L4xx_HAL_Driver/Src/stm32l4xx_hal_flash_ex.c **** 
 277:Drivers/STM32L4xx_HAL_Driver/Src/stm32l4xx_hal_flash_ex.c ****   if (pEraseInit->TypeErase == FLASH_TYPEERASE_MASSERASE)
 365              		.loc 1 277 17 discriminator 4
 366 009e 7B68     		ldr	r3, [r7, #4]
 367 00a0 1B68     		ldr	r3, [r3]
 368              		.loc 1 277 6 discriminator 4
 369 00a2 012B     		cmp	r3, #1
 370 00a4 08D1     		bne	.L25
 278:Drivers/STM32L4xx_HAL_Driver/Src/stm32l4xx_hal_flash_ex.c ****   {
 279:Drivers/STM32L4xx_HAL_Driver/Src/stm32l4xx_hal_flash_ex.c ****     /* Mass erase to be done */
 280:Drivers/STM32L4xx_HAL_Driver/Src/stm32l4xx_hal_flash_ex.c ****     pFlash.ProcedureOnGoing = FLASH_PROC_MASS_ERASE;
 371              		.loc 1 280 29
 372 00a6 104B     		ldr	r3, .L28
 373 00a8 0222     		movs	r2, #2
 374 00aa 1A72     		strb	r2, [r3, #8]
 281:Drivers/STM32L4xx_HAL_Driver/Src/stm32l4xx_hal_flash_ex.c ****     FLASH_MassErase(pEraseInit->Banks);
 375              		.loc 1 281 5
 376 00ac 7B68     		ldr	r3, [r7, #4]
 377 00ae 5B68     		ldr	r3, [r3, #4]
 378 00b0 1846     		mov	r0, r3
 379 00b2 FFF7FEFF 		bl	FLASH_MassErase
 380 00b6 12E0     		b	.L26
 381              	.L25:
 282:Drivers/STM32L4xx_HAL_Driver/Src/stm32l4xx_hal_flash_ex.c ****   }
 283:Drivers/STM32L4xx_HAL_Driver/Src/stm32l4xx_hal_flash_ex.c ****   else
 284:Drivers/STM32L4xx_HAL_Driver/Src/stm32l4xx_hal_flash_ex.c ****   {
 285:Drivers/STM32L4xx_HAL_Driver/Src/stm32l4xx_hal_flash_ex.c ****     /* Erase by page to be done */
 286:Drivers/STM32L4xx_HAL_Driver/Src/stm32l4xx_hal_flash_ex.c ****     pFlash.ProcedureOnGoing = FLASH_PROC_PAGE_ERASE;
 382              		.loc 1 286 29
 383 00b8 0B4B     		ldr	r3, .L28
 384 00ba 0122     		movs	r2, #1
 385 00bc 1A72     		strb	r2, [r3, #8]
 287:Drivers/STM32L4xx_HAL_Driver/Src/stm32l4xx_hal_flash_ex.c ****     pFlash.NbPagesToErase = pEraseInit->NbPages;
 386              		.loc 1 287 39
 387 00be 7B68     		ldr	r3, [r7, #4]
 388 00c0 DB68     		ldr	r3, [r3, #12]
 389              		.loc 1 287 27
 390 00c2 094A     		ldr	r2, .L28
 391 00c4 9361     		str	r3, [r2, #24]
 288:Drivers/STM32L4xx_HAL_Driver/Src/stm32l4xx_hal_flash_ex.c ****     pFlash.Page = pEraseInit->Page;
 392              		.loc 1 288 29
 393 00c6 7B68     		ldr	r3, [r7, #4]
 394 00c8 9B68     		ldr	r3, [r3, #8]
ARM GAS  /tmp/ccZFOTRI.s 			page 13


 395              		.loc 1 288 17
 396 00ca 074A     		ldr	r2, .L28
 397 00cc 5361     		str	r3, [r2, #20]
 289:Drivers/STM32L4xx_HAL_Driver/Src/stm32l4xx_hal_flash_ex.c **** 
 290:Drivers/STM32L4xx_HAL_Driver/Src/stm32l4xx_hal_flash_ex.c ****     /*Erase 1st page and wait for IT */
 291:Drivers/STM32L4xx_HAL_Driver/Src/stm32l4xx_hal_flash_ex.c ****     FLASH_PageErase(pEraseInit->Page, pEraseInit->Banks);
 398              		.loc 1 291 5
 399 00ce 7B68     		ldr	r3, [r7, #4]
 400 00d0 9A68     		ldr	r2, [r3, #8]
 401 00d2 7B68     		ldr	r3, [r7, #4]
 402 00d4 5B68     		ldr	r3, [r3, #4]
 403 00d6 1946     		mov	r1, r3
 404 00d8 1046     		mov	r0, r2
 405 00da FFF7FEFF 		bl	FLASH_PageErase
 406              	.L26:
 292:Drivers/STM32L4xx_HAL_Driver/Src/stm32l4xx_hal_flash_ex.c ****   }
 293:Drivers/STM32L4xx_HAL_Driver/Src/stm32l4xx_hal_flash_ex.c **** 
 294:Drivers/STM32L4xx_HAL_Driver/Src/stm32l4xx_hal_flash_ex.c ****   return status;
 407              		.loc 1 294 10
 408 00de FB7B     		ldrb	r3, [r7, #15]	@ zero_extendqisi2
 409              	.L19:
 295:Drivers/STM32L4xx_HAL_Driver/Src/stm32l4xx_hal_flash_ex.c **** }
 410              		.loc 1 295 1
 411 00e0 1846     		mov	r0, r3
 412 00e2 1037     		adds	r7, r7, #16
 413              	.LCFI8:
 414              		.cfi_def_cfa_offset 8
 415 00e4 BD46     		mov	sp, r7
 416              	.LCFI9:
 417              		.cfi_def_cfa_register 13
 418              		@ sp needed
 419 00e6 80BD     		pop	{r7, pc}
 420              	.L29:
 421              		.align	2
 422              	.L28:
 423 00e8 00000000 		.word	pFlash
 424 00ec 00200240 		.word	1073881088
 425              		.cfi_endproc
 426              	.LFE131:
 428              		.section	.text.HAL_FLASHEx_OBProgram,"ax",%progbits
 429              		.align	1
 430              		.global	HAL_FLASHEx_OBProgram
 431              		.syntax unified
 432              		.thumb
 433              		.thumb_func
 434              		.fpu fpv4-sp-d16
 436              	HAL_FLASHEx_OBProgram:
 437              	.LFB132:
 296:Drivers/STM32L4xx_HAL_Driver/Src/stm32l4xx_hal_flash_ex.c **** 
 297:Drivers/STM32L4xx_HAL_Driver/Src/stm32l4xx_hal_flash_ex.c **** /**
 298:Drivers/STM32L4xx_HAL_Driver/Src/stm32l4xx_hal_flash_ex.c ****   * @brief  Program Option bytes.
 299:Drivers/STM32L4xx_HAL_Driver/Src/stm32l4xx_hal_flash_ex.c ****   * @param  pOBInit: pointer to an FLASH_OBInitStruct structure that
 300:Drivers/STM32L4xx_HAL_Driver/Src/stm32l4xx_hal_flash_ex.c ****   *         contains the configuration information for the programming.
 301:Drivers/STM32L4xx_HAL_Driver/Src/stm32l4xx_hal_flash_ex.c ****   *
 302:Drivers/STM32L4xx_HAL_Driver/Src/stm32l4xx_hal_flash_ex.c ****   * @retval HAL Status
 303:Drivers/STM32L4xx_HAL_Driver/Src/stm32l4xx_hal_flash_ex.c ****   */
 304:Drivers/STM32L4xx_HAL_Driver/Src/stm32l4xx_hal_flash_ex.c **** HAL_StatusTypeDef HAL_FLASHEx_OBProgram(FLASH_OBProgramInitTypeDef *pOBInit)
ARM GAS  /tmp/ccZFOTRI.s 			page 14


 305:Drivers/STM32L4xx_HAL_Driver/Src/stm32l4xx_hal_flash_ex.c **** {
 438              		.loc 1 305 1
 439              		.cfi_startproc
 440              		@ args = 0, pretend = 0, frame = 16
 441              		@ frame_needed = 1, uses_anonymous_args = 0
 442 0000 80B5     		push	{r7, lr}
 443              	.LCFI10:
 444              		.cfi_def_cfa_offset 8
 445              		.cfi_offset 7, -8
 446              		.cfi_offset 14, -4
 447 0002 84B0     		sub	sp, sp, #16
 448              	.LCFI11:
 449              		.cfi_def_cfa_offset 24
 450 0004 00AF     		add	r7, sp, #0
 451              	.LCFI12:
 452              		.cfi_def_cfa_register 7
 453 0006 7860     		str	r0, [r7, #4]
 306:Drivers/STM32L4xx_HAL_Driver/Src/stm32l4xx_hal_flash_ex.c ****   HAL_StatusTypeDef status = HAL_OK;
 454              		.loc 1 306 21
 455 0008 0023     		movs	r3, #0
 456 000a FB73     		strb	r3, [r7, #15]
 307:Drivers/STM32L4xx_HAL_Driver/Src/stm32l4xx_hal_flash_ex.c **** 
 308:Drivers/STM32L4xx_HAL_Driver/Src/stm32l4xx_hal_flash_ex.c ****   /* Process Locked */
 309:Drivers/STM32L4xx_HAL_Driver/Src/stm32l4xx_hal_flash_ex.c ****   __HAL_LOCK(&pFlash);
 457              		.loc 1 309 3
 458 000c 324B     		ldr	r3, .L37
 459 000e 1B78     		ldrb	r3, [r3]	@ zero_extendqisi2
 460 0010 012B     		cmp	r3, #1
 461 0012 01D1     		bne	.L31
 462              		.loc 1 309 3 is_stmt 0 discriminator 1
 463 0014 0223     		movs	r3, #2
 464 0016 5AE0     		b	.L32
 465              	.L31:
 466              		.loc 1 309 3 discriminator 2
 467 0018 2F4B     		ldr	r3, .L37
 468 001a 0122     		movs	r2, #1
 469 001c 1A70     		strb	r2, [r3]
 310:Drivers/STM32L4xx_HAL_Driver/Src/stm32l4xx_hal_flash_ex.c **** 
 311:Drivers/STM32L4xx_HAL_Driver/Src/stm32l4xx_hal_flash_ex.c ****   /* Check the parameters */
 312:Drivers/STM32L4xx_HAL_Driver/Src/stm32l4xx_hal_flash_ex.c ****   assert_param(IS_OPTIONBYTE(pOBInit->OptionType));
 313:Drivers/STM32L4xx_HAL_Driver/Src/stm32l4xx_hal_flash_ex.c **** 
 314:Drivers/STM32L4xx_HAL_Driver/Src/stm32l4xx_hal_flash_ex.c ****   pFlash.ErrorCode = HAL_FLASH_ERROR_NONE;
 470              		.loc 1 314 20 is_stmt 1 discriminator 2
 471 001e 2E4B     		ldr	r3, .L37
 472 0020 0022     		movs	r2, #0
 473 0022 5A60     		str	r2, [r3, #4]
 315:Drivers/STM32L4xx_HAL_Driver/Src/stm32l4xx_hal_flash_ex.c **** 
 316:Drivers/STM32L4xx_HAL_Driver/Src/stm32l4xx_hal_flash_ex.c ****   /* Write protection configuration */
 317:Drivers/STM32L4xx_HAL_Driver/Src/stm32l4xx_hal_flash_ex.c ****   if((pOBInit->OptionType & OPTIONBYTE_WRP) != 0U)
 474              		.loc 1 317 14 discriminator 2
 475 0024 7B68     		ldr	r3, [r7, #4]
 476 0026 1B68     		ldr	r3, [r3]
 477              		.loc 1 317 27 discriminator 2
 478 0028 03F00103 		and	r3, r3, #1
 479              		.loc 1 317 5 discriminator 2
 480 002c 002B     		cmp	r3, #0
 481 002e 0DD0     		beq	.L33
ARM GAS  /tmp/ccZFOTRI.s 			page 15


 318:Drivers/STM32L4xx_HAL_Driver/Src/stm32l4xx_hal_flash_ex.c ****   {
 319:Drivers/STM32L4xx_HAL_Driver/Src/stm32l4xx_hal_flash_ex.c ****     /* Configure of Write protection on the selected area */
 320:Drivers/STM32L4xx_HAL_Driver/Src/stm32l4xx_hal_flash_ex.c ****     if(FLASH_OB_WRPConfig(pOBInit->WRPArea, pOBInit->WRPStartOffset, pOBInit->WRPEndOffset) != HAL_
 482              		.loc 1 320 8
 483 0030 7B68     		ldr	r3, [r7, #4]
 484 0032 5868     		ldr	r0, [r3, #4]
 485 0034 7B68     		ldr	r3, [r7, #4]
 486 0036 9968     		ldr	r1, [r3, #8]
 487 0038 7B68     		ldr	r3, [r7, #4]
 488 003a DB68     		ldr	r3, [r3, #12]
 489 003c 1A46     		mov	r2, r3
 490 003e FFF7FEFF 		bl	FLASH_OB_WRPConfig
 491 0042 0346     		mov	r3, r0
 492              		.loc 1 320 7
 493 0044 002B     		cmp	r3, #0
 494 0046 01D0     		beq	.L33
 321:Drivers/STM32L4xx_HAL_Driver/Src/stm32l4xx_hal_flash_ex.c ****     {
 322:Drivers/STM32L4xx_HAL_Driver/Src/stm32l4xx_hal_flash_ex.c ****       status = HAL_ERROR;
 495              		.loc 1 322 14
 496 0048 0123     		movs	r3, #1
 497 004a FB73     		strb	r3, [r7, #15]
 498              	.L33:
 323:Drivers/STM32L4xx_HAL_Driver/Src/stm32l4xx_hal_flash_ex.c ****     }
 324:Drivers/STM32L4xx_HAL_Driver/Src/stm32l4xx_hal_flash_ex.c **** 
 325:Drivers/STM32L4xx_HAL_Driver/Src/stm32l4xx_hal_flash_ex.c ****   }
 326:Drivers/STM32L4xx_HAL_Driver/Src/stm32l4xx_hal_flash_ex.c **** 
 327:Drivers/STM32L4xx_HAL_Driver/Src/stm32l4xx_hal_flash_ex.c ****   /* Read protection configuration */
 328:Drivers/STM32L4xx_HAL_Driver/Src/stm32l4xx_hal_flash_ex.c ****   if((pOBInit->OptionType & OPTIONBYTE_RDP) != 0U)
 499              		.loc 1 328 14
 500 004c 7B68     		ldr	r3, [r7, #4]
 501 004e 1B68     		ldr	r3, [r3]
 502              		.loc 1 328 27
 503 0050 03F00203 		and	r3, r3, #2
 504              		.loc 1 328 5
 505 0054 002B     		cmp	r3, #0
 506 0056 09D0     		beq	.L34
 329:Drivers/STM32L4xx_HAL_Driver/Src/stm32l4xx_hal_flash_ex.c ****   {
 330:Drivers/STM32L4xx_HAL_Driver/Src/stm32l4xx_hal_flash_ex.c ****     /* Configure the Read protection level */
 331:Drivers/STM32L4xx_HAL_Driver/Src/stm32l4xx_hal_flash_ex.c ****     if(FLASH_OB_RDPConfig(pOBInit->RDPLevel) != HAL_OK)
 507              		.loc 1 331 8
 508 0058 7B68     		ldr	r3, [r7, #4]
 509 005a 1B69     		ldr	r3, [r3, #16]
 510 005c 1846     		mov	r0, r3
 511 005e FFF7FEFF 		bl	FLASH_OB_RDPConfig
 512 0062 0346     		mov	r3, r0
 513              		.loc 1 331 7
 514 0064 002B     		cmp	r3, #0
 515 0066 01D0     		beq	.L34
 332:Drivers/STM32L4xx_HAL_Driver/Src/stm32l4xx_hal_flash_ex.c ****     {
 333:Drivers/STM32L4xx_HAL_Driver/Src/stm32l4xx_hal_flash_ex.c ****       status = HAL_ERROR;
 516              		.loc 1 333 14
 517 0068 0123     		movs	r3, #1
 518 006a FB73     		strb	r3, [r7, #15]
 519              	.L34:
 334:Drivers/STM32L4xx_HAL_Driver/Src/stm32l4xx_hal_flash_ex.c ****     }
 335:Drivers/STM32L4xx_HAL_Driver/Src/stm32l4xx_hal_flash_ex.c ****   }
 336:Drivers/STM32L4xx_HAL_Driver/Src/stm32l4xx_hal_flash_ex.c **** 
ARM GAS  /tmp/ccZFOTRI.s 			page 16


 337:Drivers/STM32L4xx_HAL_Driver/Src/stm32l4xx_hal_flash_ex.c ****   /* User Configuration */
 338:Drivers/STM32L4xx_HAL_Driver/Src/stm32l4xx_hal_flash_ex.c ****   if((pOBInit->OptionType & OPTIONBYTE_USER) != 0U)
 520              		.loc 1 338 14
 521 006c 7B68     		ldr	r3, [r7, #4]
 522 006e 1B68     		ldr	r3, [r3]
 523              		.loc 1 338 27
 524 0070 03F00403 		and	r3, r3, #4
 525              		.loc 1 338 5
 526 0074 002B     		cmp	r3, #0
 527 0076 0CD0     		beq	.L35
 339:Drivers/STM32L4xx_HAL_Driver/Src/stm32l4xx_hal_flash_ex.c ****   {
 340:Drivers/STM32L4xx_HAL_Driver/Src/stm32l4xx_hal_flash_ex.c ****     /* Configure the user option bytes */
 341:Drivers/STM32L4xx_HAL_Driver/Src/stm32l4xx_hal_flash_ex.c ****     if(FLASH_OB_UserConfig(pOBInit->USERType, pOBInit->USERConfig) != HAL_OK)
 528              		.loc 1 341 8
 529 0078 7B68     		ldr	r3, [r7, #4]
 530 007a 5A69     		ldr	r2, [r3, #20]
 531 007c 7B68     		ldr	r3, [r7, #4]
 532 007e 9B69     		ldr	r3, [r3, #24]
 533 0080 1946     		mov	r1, r3
 534 0082 1046     		mov	r0, r2
 535 0084 FFF7FEFF 		bl	FLASH_OB_UserConfig
 536 0088 0346     		mov	r3, r0
 537              		.loc 1 341 7
 538 008a 002B     		cmp	r3, #0
 539 008c 01D0     		beq	.L35
 342:Drivers/STM32L4xx_HAL_Driver/Src/stm32l4xx_hal_flash_ex.c ****     {
 343:Drivers/STM32L4xx_HAL_Driver/Src/stm32l4xx_hal_flash_ex.c ****       status = HAL_ERROR;
 540              		.loc 1 343 14
 541 008e 0123     		movs	r3, #1
 542 0090 FB73     		strb	r3, [r7, #15]
 543              	.L35:
 344:Drivers/STM32L4xx_HAL_Driver/Src/stm32l4xx_hal_flash_ex.c ****     }
 345:Drivers/STM32L4xx_HAL_Driver/Src/stm32l4xx_hal_flash_ex.c ****   }
 346:Drivers/STM32L4xx_HAL_Driver/Src/stm32l4xx_hal_flash_ex.c **** 
 347:Drivers/STM32L4xx_HAL_Driver/Src/stm32l4xx_hal_flash_ex.c ****   /* PCROP Configuration */
 348:Drivers/STM32L4xx_HAL_Driver/Src/stm32l4xx_hal_flash_ex.c ****   if((pOBInit->OptionType & OPTIONBYTE_PCROP) != 0U)
 544              		.loc 1 348 14
 545 0092 7B68     		ldr	r3, [r7, #4]
 546 0094 1B68     		ldr	r3, [r3]
 547              		.loc 1 348 27
 548 0096 03F00803 		and	r3, r3, #8
 549              		.loc 1 348 5
 550 009a 002B     		cmp	r3, #0
 551 009c 13D0     		beq	.L36
 349:Drivers/STM32L4xx_HAL_Driver/Src/stm32l4xx_hal_flash_ex.c ****   {
 350:Drivers/STM32L4xx_HAL_Driver/Src/stm32l4xx_hal_flash_ex.c ****     if (pOBInit->PCROPStartAddr != pOBInit->PCROPEndAddr)
 552              		.loc 1 350 16
 553 009e 7B68     		ldr	r3, [r7, #4]
 554 00a0 1A6A     		ldr	r2, [r3, #32]
 555              		.loc 1 350 43
 556 00a2 7B68     		ldr	r3, [r7, #4]
 557 00a4 5B6A     		ldr	r3, [r3, #36]
 558              		.loc 1 350 8
 559 00a6 9A42     		cmp	r2, r3
 560 00a8 0DD0     		beq	.L36
 351:Drivers/STM32L4xx_HAL_Driver/Src/stm32l4xx_hal_flash_ex.c ****     {
 352:Drivers/STM32L4xx_HAL_Driver/Src/stm32l4xx_hal_flash_ex.c ****       /* Configure the Proprietary code readout protection */
ARM GAS  /tmp/ccZFOTRI.s 			page 17


 353:Drivers/STM32L4xx_HAL_Driver/Src/stm32l4xx_hal_flash_ex.c ****       if(FLASH_OB_PCROPConfig(pOBInit->PCROPConfig, pOBInit->PCROPStartAddr, pOBInit->PCROPEndAddr)
 561              		.loc 1 353 10
 562 00aa 7B68     		ldr	r3, [r7, #4]
 563 00ac D869     		ldr	r0, [r3, #28]
 564 00ae 7B68     		ldr	r3, [r7, #4]
 565 00b0 196A     		ldr	r1, [r3, #32]
 566 00b2 7B68     		ldr	r3, [r7, #4]
 567 00b4 5B6A     		ldr	r3, [r3, #36]
 568 00b6 1A46     		mov	r2, r3
 569 00b8 FFF7FEFF 		bl	FLASH_OB_PCROPConfig
 570 00bc 0346     		mov	r3, r0
 571              		.loc 1 353 9
 572 00be 002B     		cmp	r3, #0
 573 00c0 01D0     		beq	.L36
 354:Drivers/STM32L4xx_HAL_Driver/Src/stm32l4xx_hal_flash_ex.c ****       {
 355:Drivers/STM32L4xx_HAL_Driver/Src/stm32l4xx_hal_flash_ex.c ****         status = HAL_ERROR;
 574              		.loc 1 355 16
 575 00c2 0123     		movs	r3, #1
 576 00c4 FB73     		strb	r3, [r7, #15]
 577              	.L36:
 356:Drivers/STM32L4xx_HAL_Driver/Src/stm32l4xx_hal_flash_ex.c ****       }
 357:Drivers/STM32L4xx_HAL_Driver/Src/stm32l4xx_hal_flash_ex.c ****     }
 358:Drivers/STM32L4xx_HAL_Driver/Src/stm32l4xx_hal_flash_ex.c ****   }
 359:Drivers/STM32L4xx_HAL_Driver/Src/stm32l4xx_hal_flash_ex.c **** 
 360:Drivers/STM32L4xx_HAL_Driver/Src/stm32l4xx_hal_flash_ex.c ****   /* Process Unlocked */
 361:Drivers/STM32L4xx_HAL_Driver/Src/stm32l4xx_hal_flash_ex.c ****   __HAL_UNLOCK(&pFlash);
 578              		.loc 1 361 3
 579 00c6 044B     		ldr	r3, .L37
 580 00c8 0022     		movs	r2, #0
 581 00ca 1A70     		strb	r2, [r3]
 362:Drivers/STM32L4xx_HAL_Driver/Src/stm32l4xx_hal_flash_ex.c **** 
 363:Drivers/STM32L4xx_HAL_Driver/Src/stm32l4xx_hal_flash_ex.c ****   return status;
 582              		.loc 1 363 10
 583 00cc FB7B     		ldrb	r3, [r7, #15]	@ zero_extendqisi2
 584              	.L32:
 364:Drivers/STM32L4xx_HAL_Driver/Src/stm32l4xx_hal_flash_ex.c **** }
 585              		.loc 1 364 1
 586 00ce 1846     		mov	r0, r3
 587 00d0 1037     		adds	r7, r7, #16
 588              	.LCFI13:
 589              		.cfi_def_cfa_offset 8
 590 00d2 BD46     		mov	sp, r7
 591              	.LCFI14:
 592              		.cfi_def_cfa_register 13
 593              		@ sp needed
 594 00d4 80BD     		pop	{r7, pc}
 595              	.L38:
 596 00d6 00BF     		.align	2
 597              	.L37:
 598 00d8 00000000 		.word	pFlash
 599              		.cfi_endproc
 600              	.LFE132:
 602              		.section	.text.HAL_FLASHEx_OBGetConfig,"ax",%progbits
 603              		.align	1
 604              		.global	HAL_FLASHEx_OBGetConfig
 605              		.syntax unified
 606              		.thumb
ARM GAS  /tmp/ccZFOTRI.s 			page 18


 607              		.thumb_func
 608              		.fpu fpv4-sp-d16
 610              	HAL_FLASHEx_OBGetConfig:
 611              	.LFB133:
 365:Drivers/STM32L4xx_HAL_Driver/Src/stm32l4xx_hal_flash_ex.c **** 
 366:Drivers/STM32L4xx_HAL_Driver/Src/stm32l4xx_hal_flash_ex.c **** /**
 367:Drivers/STM32L4xx_HAL_Driver/Src/stm32l4xx_hal_flash_ex.c ****   * @brief  Get the Option bytes configuration.
 368:Drivers/STM32L4xx_HAL_Driver/Src/stm32l4xx_hal_flash_ex.c ****   * @param  pOBInit: pointer to an FLASH_OBInitStruct structure that contains the
 369:Drivers/STM32L4xx_HAL_Driver/Src/stm32l4xx_hal_flash_ex.c ****   *                  configuration information.
 370:Drivers/STM32L4xx_HAL_Driver/Src/stm32l4xx_hal_flash_ex.c ****   * @note   The fields pOBInit->WRPArea and pOBInit->PCROPConfig should indicate
 371:Drivers/STM32L4xx_HAL_Driver/Src/stm32l4xx_hal_flash_ex.c ****   *         which area is requested for the WRP and PCROP, else no information will be returned
 372:Drivers/STM32L4xx_HAL_Driver/Src/stm32l4xx_hal_flash_ex.c ****   *
 373:Drivers/STM32L4xx_HAL_Driver/Src/stm32l4xx_hal_flash_ex.c ****   * @retval None
 374:Drivers/STM32L4xx_HAL_Driver/Src/stm32l4xx_hal_flash_ex.c ****   */
 375:Drivers/STM32L4xx_HAL_Driver/Src/stm32l4xx_hal_flash_ex.c **** void HAL_FLASHEx_OBGetConfig(FLASH_OBProgramInitTypeDef *pOBInit)
 376:Drivers/STM32L4xx_HAL_Driver/Src/stm32l4xx_hal_flash_ex.c **** {
 612              		.loc 1 376 1
 613              		.cfi_startproc
 614              		@ args = 0, pretend = 0, frame = 8
 615              		@ frame_needed = 1, uses_anonymous_args = 0
 616 0000 80B5     		push	{r7, lr}
 617              	.LCFI15:
 618              		.cfi_def_cfa_offset 8
 619              		.cfi_offset 7, -8
 620              		.cfi_offset 14, -4
 621 0002 82B0     		sub	sp, sp, #8
 622              	.LCFI16:
 623              		.cfi_def_cfa_offset 16
 624 0004 00AF     		add	r7, sp, #0
 625              	.LCFI17:
 626              		.cfi_def_cfa_register 7
 627 0006 7860     		str	r0, [r7, #4]
 377:Drivers/STM32L4xx_HAL_Driver/Src/stm32l4xx_hal_flash_ex.c ****   pOBInit->OptionType = (OPTIONBYTE_RDP | OPTIONBYTE_USER);
 628              		.loc 1 377 23
 629 0008 7B68     		ldr	r3, [r7, #4]
 630 000a 0622     		movs	r2, #6
 631 000c 1A60     		str	r2, [r3]
 378:Drivers/STM32L4xx_HAL_Driver/Src/stm32l4xx_hal_flash_ex.c **** 
 379:Drivers/STM32L4xx_HAL_Driver/Src/stm32l4xx_hal_flash_ex.c **** #if defined (STM32L471xx) || defined (STM32L475xx) || defined (STM32L476xx) || defined (STM32L485xx
 380:Drivers/STM32L4xx_HAL_Driver/Src/stm32l4xx_hal_flash_ex.c ****     defined (STM32L496xx) || defined (STM32L4A6xx) || \
 381:Drivers/STM32L4xx_HAL_Driver/Src/stm32l4xx_hal_flash_ex.c ****     defined (STM32L4R5xx) || defined (STM32L4R7xx) || defined (STM32L4R9xx) || defined (STM32L4S5xx
 382:Drivers/STM32L4xx_HAL_Driver/Src/stm32l4xx_hal_flash_ex.c ****   if((pOBInit->WRPArea == OB_WRPAREA_BANK1_AREAA) || (pOBInit->WRPArea == OB_WRPAREA_BANK1_AREAB) |
 632              		.loc 1 382 14
 633 000e 7B68     		ldr	r3, [r7, #4]
 634 0010 5B68     		ldr	r3, [r3, #4]
 635              		.loc 1 382 5
 636 0012 002B     		cmp	r3, #0
 637 0014 0BD0     		beq	.L40
 638              		.loc 1 382 62 discriminator 1
 639 0016 7B68     		ldr	r3, [r7, #4]
 640 0018 5B68     		ldr	r3, [r3, #4]
 641              		.loc 1 382 51 discriminator 1
 642 001a 012B     		cmp	r3, #1
 643 001c 07D0     		beq	.L40
 383:Drivers/STM32L4xx_HAL_Driver/Src/stm32l4xx_hal_flash_ex.c ****      (pOBInit->WRPArea == OB_WRPAREA_BANK2_AREAA) || (pOBInit->WRPArea == OB_WRPAREA_BANK2_AREAB))
 644              		.loc 1 383 14 discriminator 2
 645 001e 7B68     		ldr	r3, [r7, #4]
ARM GAS  /tmp/ccZFOTRI.s 			page 19


 646 0020 5B68     		ldr	r3, [r3, #4]
 382:Drivers/STM32L4xx_HAL_Driver/Src/stm32l4xx_hal_flash_ex.c ****      (pOBInit->WRPArea == OB_WRPAREA_BANK2_AREAA) || (pOBInit->WRPArea == OB_WRPAREA_BANK2_AREAB))
 647              		.loc 1 382 99 discriminator 2
 648 0022 022B     		cmp	r3, #2
 649 0024 03D0     		beq	.L40
 650              		.loc 1 383 62
 651 0026 7B68     		ldr	r3, [r7, #4]
 652 0028 5B68     		ldr	r3, [r3, #4]
 653              		.loc 1 383 51
 654 002a 042B     		cmp	r3, #4
 655 002c 0FD1     		bne	.L41
 656              	.L40:
 384:Drivers/STM32L4xx_HAL_Driver/Src/stm32l4xx_hal_flash_ex.c **** #else
 385:Drivers/STM32L4xx_HAL_Driver/Src/stm32l4xx_hal_flash_ex.c ****   if((pOBInit->WRPArea == OB_WRPAREA_BANK1_AREAA) || (pOBInit->WRPArea == OB_WRPAREA_BANK1_AREAB))
 386:Drivers/STM32L4xx_HAL_Driver/Src/stm32l4xx_hal_flash_ex.c **** #endif
 387:Drivers/STM32L4xx_HAL_Driver/Src/stm32l4xx_hal_flash_ex.c ****   {
 388:Drivers/STM32L4xx_HAL_Driver/Src/stm32l4xx_hal_flash_ex.c ****     pOBInit->OptionType |= OPTIONBYTE_WRP;
 657              		.loc 1 388 25
 658 002e 7B68     		ldr	r3, [r7, #4]
 659 0030 1B68     		ldr	r3, [r3]
 660 0032 43F00102 		orr	r2, r3, #1
 661 0036 7B68     		ldr	r3, [r7, #4]
 662 0038 1A60     		str	r2, [r3]
 389:Drivers/STM32L4xx_HAL_Driver/Src/stm32l4xx_hal_flash_ex.c ****     /* Get write protection on the selected area */
 390:Drivers/STM32L4xx_HAL_Driver/Src/stm32l4xx_hal_flash_ex.c ****     FLASH_OB_GetWRP(pOBInit->WRPArea, &(pOBInit->WRPStartOffset), &(pOBInit->WRPEndOffset));
 663              		.loc 1 390 5
 664 003a 7B68     		ldr	r3, [r7, #4]
 665 003c 5868     		ldr	r0, [r3, #4]
 666 003e 7B68     		ldr	r3, [r7, #4]
 667 0040 03F10801 		add	r1, r3, #8
 668 0044 7B68     		ldr	r3, [r7, #4]
 669 0046 0C33     		adds	r3, r3, #12
 670 0048 1A46     		mov	r2, r3
 671 004a FFF7FEFF 		bl	FLASH_OB_GetWRP
 672              	.L41:
 391:Drivers/STM32L4xx_HAL_Driver/Src/stm32l4xx_hal_flash_ex.c ****   }
 392:Drivers/STM32L4xx_HAL_Driver/Src/stm32l4xx_hal_flash_ex.c **** 
 393:Drivers/STM32L4xx_HAL_Driver/Src/stm32l4xx_hal_flash_ex.c ****   /* Get Read protection level */
 394:Drivers/STM32L4xx_HAL_Driver/Src/stm32l4xx_hal_flash_ex.c ****   pOBInit->RDPLevel = FLASH_OB_GetRDP();
 673              		.loc 1 394 23
 674 004e FFF7FEFF 		bl	FLASH_OB_GetRDP
 675 0052 0246     		mov	r2, r0
 676              		.loc 1 394 21
 677 0054 7B68     		ldr	r3, [r7, #4]
 678 0056 1A61     		str	r2, [r3, #16]
 395:Drivers/STM32L4xx_HAL_Driver/Src/stm32l4xx_hal_flash_ex.c **** 
 396:Drivers/STM32L4xx_HAL_Driver/Src/stm32l4xx_hal_flash_ex.c ****   /* Get the user option bytes */
 397:Drivers/STM32L4xx_HAL_Driver/Src/stm32l4xx_hal_flash_ex.c ****   pOBInit->USERConfig = FLASH_OB_GetUser();
 679              		.loc 1 397 25
 680 0058 FFF7FEFF 		bl	FLASH_OB_GetUser
 681 005c 0246     		mov	r2, r0
 682              		.loc 1 397 23
 683 005e 7B68     		ldr	r3, [r7, #4]
 684 0060 9A61     		str	r2, [r3, #24]
 398:Drivers/STM32L4xx_HAL_Driver/Src/stm32l4xx_hal_flash_ex.c **** 
 399:Drivers/STM32L4xx_HAL_Driver/Src/stm32l4xx_hal_flash_ex.c **** #if defined (STM32L471xx) || defined (STM32L475xx) || defined (STM32L476xx) || defined (STM32L485xx
 400:Drivers/STM32L4xx_HAL_Driver/Src/stm32l4xx_hal_flash_ex.c ****     defined (STM32L496xx) || defined (STM32L4A6xx) || \
ARM GAS  /tmp/ccZFOTRI.s 			page 20


 401:Drivers/STM32L4xx_HAL_Driver/Src/stm32l4xx_hal_flash_ex.c ****     defined (STM32L4R5xx) || defined (STM32L4R7xx) || defined (STM32L4R9xx) || defined (STM32L4S5xx
 402:Drivers/STM32L4xx_HAL_Driver/Src/stm32l4xx_hal_flash_ex.c ****   if((pOBInit->PCROPConfig == FLASH_BANK_1) || (pOBInit->PCROPConfig == FLASH_BANK_2))
 685              		.loc 1 402 14
 686 0062 7B68     		ldr	r3, [r7, #4]
 687 0064 DB69     		ldr	r3, [r3, #28]
 688              		.loc 1 402 5
 689 0066 012B     		cmp	r3, #1
 690 0068 03D0     		beq	.L42
 691              		.loc 1 402 56 discriminator 1
 692 006a 7B68     		ldr	r3, [r7, #4]
 693 006c DB69     		ldr	r3, [r3, #28]
 694              		.loc 1 402 45 discriminator 1
 695 006e 022B     		cmp	r3, #2
 696 0070 10D1     		bne	.L44
 697              	.L42:
 403:Drivers/STM32L4xx_HAL_Driver/Src/stm32l4xx_hal_flash_ex.c **** #else
 404:Drivers/STM32L4xx_HAL_Driver/Src/stm32l4xx_hal_flash_ex.c ****   if(pOBInit->PCROPConfig == FLASH_BANK_1)
 405:Drivers/STM32L4xx_HAL_Driver/Src/stm32l4xx_hal_flash_ex.c **** #endif
 406:Drivers/STM32L4xx_HAL_Driver/Src/stm32l4xx_hal_flash_ex.c ****   {
 407:Drivers/STM32L4xx_HAL_Driver/Src/stm32l4xx_hal_flash_ex.c ****     pOBInit->OptionType |= OPTIONBYTE_PCROP;
 698              		.loc 1 407 25
 699 0072 7B68     		ldr	r3, [r7, #4]
 700 0074 1B68     		ldr	r3, [r3]
 701 0076 43F00802 		orr	r2, r3, #8
 702 007a 7B68     		ldr	r3, [r7, #4]
 703 007c 1A60     		str	r2, [r3]
 408:Drivers/STM32L4xx_HAL_Driver/Src/stm32l4xx_hal_flash_ex.c ****     /* Get the Proprietary code readout protection */
 409:Drivers/STM32L4xx_HAL_Driver/Src/stm32l4xx_hal_flash_ex.c ****     FLASH_OB_GetPCROP(&(pOBInit->PCROPConfig), &(pOBInit->PCROPStartAddr), &(pOBInit->PCROPEndAddr)
 704              		.loc 1 409 5
 705 007e 7B68     		ldr	r3, [r7, #4]
 706 0080 03F11C00 		add	r0, r3, #28
 707 0084 7B68     		ldr	r3, [r7, #4]
 708 0086 03F12001 		add	r1, r3, #32
 709 008a 7B68     		ldr	r3, [r7, #4]
 710 008c 2433     		adds	r3, r3, #36
 711 008e 1A46     		mov	r2, r3
 712 0090 FFF7FEFF 		bl	FLASH_OB_GetPCROP
 713              	.L44:
 410:Drivers/STM32L4xx_HAL_Driver/Src/stm32l4xx_hal_flash_ex.c ****   }
 411:Drivers/STM32L4xx_HAL_Driver/Src/stm32l4xx_hal_flash_ex.c **** }
 714              		.loc 1 411 1
 715 0094 00BF     		nop
 716 0096 0837     		adds	r7, r7, #8
 717              	.LCFI18:
 718              		.cfi_def_cfa_offset 8
 719 0098 BD46     		mov	sp, r7
 720              	.LCFI19:
 721              		.cfi_def_cfa_register 13
 722              		@ sp needed
 723 009a 80BD     		pop	{r7, pc}
 724              		.cfi_endproc
 725              	.LFE133:
 727              		.section	.text.FLASH_MassErase,"ax",%progbits
 728              		.align	1
 729              		.syntax unified
 730              		.thumb
 731              		.thumb_func
ARM GAS  /tmp/ccZFOTRI.s 			page 21


 732              		.fpu fpv4-sp-d16
 734              	FLASH_MassErase:
 735              	.LFB134:
 412:Drivers/STM32L4xx_HAL_Driver/Src/stm32l4xx_hal_flash_ex.c **** 
 413:Drivers/STM32L4xx_HAL_Driver/Src/stm32l4xx_hal_flash_ex.c **** /**
 414:Drivers/STM32L4xx_HAL_Driver/Src/stm32l4xx_hal_flash_ex.c ****   * @}
 415:Drivers/STM32L4xx_HAL_Driver/Src/stm32l4xx_hal_flash_ex.c ****   */
 416:Drivers/STM32L4xx_HAL_Driver/Src/stm32l4xx_hal_flash_ex.c **** 
 417:Drivers/STM32L4xx_HAL_Driver/Src/stm32l4xx_hal_flash_ex.c **** #if defined (FLASH_CFGR_LVEN)
 418:Drivers/STM32L4xx_HAL_Driver/Src/stm32l4xx_hal_flash_ex.c **** /** @defgroup FLASHEx_Exported_Functions_Group2 Extended specific configuration functions
 419:Drivers/STM32L4xx_HAL_Driver/Src/stm32l4xx_hal_flash_ex.c ****  *  @brief   Extended specific configuration functions
 420:Drivers/STM32L4xx_HAL_Driver/Src/stm32l4xx_hal_flash_ex.c ****  *
 421:Drivers/STM32L4xx_HAL_Driver/Src/stm32l4xx_hal_flash_ex.c **** @verbatim
 422:Drivers/STM32L4xx_HAL_Driver/Src/stm32l4xx_hal_flash_ex.c ****  ===============================================================================
 423:Drivers/STM32L4xx_HAL_Driver/Src/stm32l4xx_hal_flash_ex.c ****                 ##### Extended specific configuration functions #####
 424:Drivers/STM32L4xx_HAL_Driver/Src/stm32l4xx_hal_flash_ex.c ****  ===============================================================================
 425:Drivers/STM32L4xx_HAL_Driver/Src/stm32l4xx_hal_flash_ex.c ****     [..]
 426:Drivers/STM32L4xx_HAL_Driver/Src/stm32l4xx_hal_flash_ex.c ****     This subsection provides a set of functions allowing to manage the Extended FLASH
 427:Drivers/STM32L4xx_HAL_Driver/Src/stm32l4xx_hal_flash_ex.c ****     specific configurations.
 428:Drivers/STM32L4xx_HAL_Driver/Src/stm32l4xx_hal_flash_ex.c **** 
 429:Drivers/STM32L4xx_HAL_Driver/Src/stm32l4xx_hal_flash_ex.c **** @endverbatim
 430:Drivers/STM32L4xx_HAL_Driver/Src/stm32l4xx_hal_flash_ex.c ****   * @{
 431:Drivers/STM32L4xx_HAL_Driver/Src/stm32l4xx_hal_flash_ex.c ****   */
 432:Drivers/STM32L4xx_HAL_Driver/Src/stm32l4xx_hal_flash_ex.c **** 
 433:Drivers/STM32L4xx_HAL_Driver/Src/stm32l4xx_hal_flash_ex.c **** /**
 434:Drivers/STM32L4xx_HAL_Driver/Src/stm32l4xx_hal_flash_ex.c ****   * @brief  Configuration of the LVE pin of the Flash (managed by power controller
 435:Drivers/STM32L4xx_HAL_Driver/Src/stm32l4xx_hal_flash_ex.c ****   *         or forced to low in order to use an external SMPS)
 436:Drivers/STM32L4xx_HAL_Driver/Src/stm32l4xx_hal_flash_ex.c ****   * @param  ConfigLVE: Configuration of the LVE pin,
 437:Drivers/STM32L4xx_HAL_Driver/Src/stm32l4xx_hal_flash_ex.c ****   *              This parameter can be one of the following values:
 438:Drivers/STM32L4xx_HAL_Driver/Src/stm32l4xx_hal_flash_ex.c ****   *                @arg FLASH_LVE_PIN_CTRL: LVE FLASH pin controlled by power controller
 439:Drivers/STM32L4xx_HAL_Driver/Src/stm32l4xx_hal_flash_ex.c ****   *                @arg FLASH_LVE_PIN_FORCED: LVE FLASH pin enforced to low (external SMPS used)
 440:Drivers/STM32L4xx_HAL_Driver/Src/stm32l4xx_hal_flash_ex.c ****   *
 441:Drivers/STM32L4xx_HAL_Driver/Src/stm32l4xx_hal_flash_ex.c ****   * @note   Before enforcing the LVE pin to low, the SOC should be in low voltage
 442:Drivers/STM32L4xx_HAL_Driver/Src/stm32l4xx_hal_flash_ex.c ****   *         range 2 and the voltage VDD12 should be higher than 1.08V and SMPS is ON.
 443:Drivers/STM32L4xx_HAL_Driver/Src/stm32l4xx_hal_flash_ex.c ****   *
 444:Drivers/STM32L4xx_HAL_Driver/Src/stm32l4xx_hal_flash_ex.c ****   * @retval HAL Status
 445:Drivers/STM32L4xx_HAL_Driver/Src/stm32l4xx_hal_flash_ex.c ****   */
 446:Drivers/STM32L4xx_HAL_Driver/Src/stm32l4xx_hal_flash_ex.c **** HAL_StatusTypeDef HAL_FLASHEx_ConfigLVEPin(uint32_t ConfigLVE)
 447:Drivers/STM32L4xx_HAL_Driver/Src/stm32l4xx_hal_flash_ex.c **** {
 448:Drivers/STM32L4xx_HAL_Driver/Src/stm32l4xx_hal_flash_ex.c ****   HAL_StatusTypeDef status;
 449:Drivers/STM32L4xx_HAL_Driver/Src/stm32l4xx_hal_flash_ex.c **** 
 450:Drivers/STM32L4xx_HAL_Driver/Src/stm32l4xx_hal_flash_ex.c ****   /* Process Locked */
 451:Drivers/STM32L4xx_HAL_Driver/Src/stm32l4xx_hal_flash_ex.c ****   __HAL_LOCK(&pFlash);
 452:Drivers/STM32L4xx_HAL_Driver/Src/stm32l4xx_hal_flash_ex.c **** 
 453:Drivers/STM32L4xx_HAL_Driver/Src/stm32l4xx_hal_flash_ex.c ****   /* Check the parameters */
 454:Drivers/STM32L4xx_HAL_Driver/Src/stm32l4xx_hal_flash_ex.c ****   assert_param(IS_FLASH_LVE_PIN(ConfigLVE));
 455:Drivers/STM32L4xx_HAL_Driver/Src/stm32l4xx_hal_flash_ex.c **** 
 456:Drivers/STM32L4xx_HAL_Driver/Src/stm32l4xx_hal_flash_ex.c ****   /* Wait for last operation to be completed */
 457:Drivers/STM32L4xx_HAL_Driver/Src/stm32l4xx_hal_flash_ex.c ****   status = FLASH_WaitForLastOperation((uint32_t)FLASH_TIMEOUT_VALUE);
 458:Drivers/STM32L4xx_HAL_Driver/Src/stm32l4xx_hal_flash_ex.c **** 
 459:Drivers/STM32L4xx_HAL_Driver/Src/stm32l4xx_hal_flash_ex.c ****   if (status == HAL_OK)
 460:Drivers/STM32L4xx_HAL_Driver/Src/stm32l4xx_hal_flash_ex.c ****   {
 461:Drivers/STM32L4xx_HAL_Driver/Src/stm32l4xx_hal_flash_ex.c ****     /* Check that the voltage scaling is range 2 */
 462:Drivers/STM32L4xx_HAL_Driver/Src/stm32l4xx_hal_flash_ex.c ****     if (HAL_PWREx_GetVoltageRange() == PWR_REGULATOR_VOLTAGE_SCALE2)
 463:Drivers/STM32L4xx_HAL_Driver/Src/stm32l4xx_hal_flash_ex.c ****     {
 464:Drivers/STM32L4xx_HAL_Driver/Src/stm32l4xx_hal_flash_ex.c ****       /* Configure the LVEN bit */
 465:Drivers/STM32L4xx_HAL_Driver/Src/stm32l4xx_hal_flash_ex.c ****       MODIFY_REG(FLASH->CFGR, FLASH_CFGR_LVEN, ConfigLVE);
ARM GAS  /tmp/ccZFOTRI.s 			page 22


 466:Drivers/STM32L4xx_HAL_Driver/Src/stm32l4xx_hal_flash_ex.c **** 
 467:Drivers/STM32L4xx_HAL_Driver/Src/stm32l4xx_hal_flash_ex.c ****       /* Check that the bit has been correctly configured */
 468:Drivers/STM32L4xx_HAL_Driver/Src/stm32l4xx_hal_flash_ex.c ****       if (READ_BIT(FLASH->CFGR, FLASH_CFGR_LVEN) != ConfigLVE)
 469:Drivers/STM32L4xx_HAL_Driver/Src/stm32l4xx_hal_flash_ex.c ****       {
 470:Drivers/STM32L4xx_HAL_Driver/Src/stm32l4xx_hal_flash_ex.c ****         status = HAL_ERROR;
 471:Drivers/STM32L4xx_HAL_Driver/Src/stm32l4xx_hal_flash_ex.c ****       }
 472:Drivers/STM32L4xx_HAL_Driver/Src/stm32l4xx_hal_flash_ex.c ****     }
 473:Drivers/STM32L4xx_HAL_Driver/Src/stm32l4xx_hal_flash_ex.c ****     else
 474:Drivers/STM32L4xx_HAL_Driver/Src/stm32l4xx_hal_flash_ex.c ****     {
 475:Drivers/STM32L4xx_HAL_Driver/Src/stm32l4xx_hal_flash_ex.c ****       /* Not allow to force Flash LVE pin if not in voltage range 2 */
 476:Drivers/STM32L4xx_HAL_Driver/Src/stm32l4xx_hal_flash_ex.c ****       status = HAL_ERROR;
 477:Drivers/STM32L4xx_HAL_Driver/Src/stm32l4xx_hal_flash_ex.c ****     }
 478:Drivers/STM32L4xx_HAL_Driver/Src/stm32l4xx_hal_flash_ex.c ****   }
 479:Drivers/STM32L4xx_HAL_Driver/Src/stm32l4xx_hal_flash_ex.c **** 
 480:Drivers/STM32L4xx_HAL_Driver/Src/stm32l4xx_hal_flash_ex.c ****   /* Process Unlocked */
 481:Drivers/STM32L4xx_HAL_Driver/Src/stm32l4xx_hal_flash_ex.c ****   __HAL_UNLOCK(&pFlash);
 482:Drivers/STM32L4xx_HAL_Driver/Src/stm32l4xx_hal_flash_ex.c **** 
 483:Drivers/STM32L4xx_HAL_Driver/Src/stm32l4xx_hal_flash_ex.c ****   return status;
 484:Drivers/STM32L4xx_HAL_Driver/Src/stm32l4xx_hal_flash_ex.c **** }
 485:Drivers/STM32L4xx_HAL_Driver/Src/stm32l4xx_hal_flash_ex.c **** 
 486:Drivers/STM32L4xx_HAL_Driver/Src/stm32l4xx_hal_flash_ex.c **** /**
 487:Drivers/STM32L4xx_HAL_Driver/Src/stm32l4xx_hal_flash_ex.c ****   * @}
 488:Drivers/STM32L4xx_HAL_Driver/Src/stm32l4xx_hal_flash_ex.c ****   */
 489:Drivers/STM32L4xx_HAL_Driver/Src/stm32l4xx_hal_flash_ex.c **** #endif /* FLASH_CFGR_LVEN */
 490:Drivers/STM32L4xx_HAL_Driver/Src/stm32l4xx_hal_flash_ex.c **** 
 491:Drivers/STM32L4xx_HAL_Driver/Src/stm32l4xx_hal_flash_ex.c **** /**
 492:Drivers/STM32L4xx_HAL_Driver/Src/stm32l4xx_hal_flash_ex.c ****   * @}
 493:Drivers/STM32L4xx_HAL_Driver/Src/stm32l4xx_hal_flash_ex.c ****   */
 494:Drivers/STM32L4xx_HAL_Driver/Src/stm32l4xx_hal_flash_ex.c **** 
 495:Drivers/STM32L4xx_HAL_Driver/Src/stm32l4xx_hal_flash_ex.c **** /* Private functions ---------------------------------------------------------*/
 496:Drivers/STM32L4xx_HAL_Driver/Src/stm32l4xx_hal_flash_ex.c **** 
 497:Drivers/STM32L4xx_HAL_Driver/Src/stm32l4xx_hal_flash_ex.c **** /** @addtogroup FLASHEx_Private_Functions
 498:Drivers/STM32L4xx_HAL_Driver/Src/stm32l4xx_hal_flash_ex.c ****   * @{
 499:Drivers/STM32L4xx_HAL_Driver/Src/stm32l4xx_hal_flash_ex.c ****   */
 500:Drivers/STM32L4xx_HAL_Driver/Src/stm32l4xx_hal_flash_ex.c **** /**
 501:Drivers/STM32L4xx_HAL_Driver/Src/stm32l4xx_hal_flash_ex.c ****   * @brief  Mass erase of FLASH memory.
 502:Drivers/STM32L4xx_HAL_Driver/Src/stm32l4xx_hal_flash_ex.c ****   * @param  Banks: Banks to be erased
 503:Drivers/STM32L4xx_HAL_Driver/Src/stm32l4xx_hal_flash_ex.c ****   *          This parameter can be one of the following values:
 504:Drivers/STM32L4xx_HAL_Driver/Src/stm32l4xx_hal_flash_ex.c ****   *            @arg FLASH_BANK_1: Bank1 to be erased
 505:Drivers/STM32L4xx_HAL_Driver/Src/stm32l4xx_hal_flash_ex.c ****   *            @arg FLASH_BANK_2: Bank2 to be erased
 506:Drivers/STM32L4xx_HAL_Driver/Src/stm32l4xx_hal_flash_ex.c ****   *            @arg FLASH_BANK_BOTH: Bank1 and Bank2 to be erased
 507:Drivers/STM32L4xx_HAL_Driver/Src/stm32l4xx_hal_flash_ex.c ****   * @retval None
 508:Drivers/STM32L4xx_HAL_Driver/Src/stm32l4xx_hal_flash_ex.c ****   */
 509:Drivers/STM32L4xx_HAL_Driver/Src/stm32l4xx_hal_flash_ex.c **** static void FLASH_MassErase(uint32_t Banks)
 510:Drivers/STM32L4xx_HAL_Driver/Src/stm32l4xx_hal_flash_ex.c **** {
 736              		.loc 1 510 1
 737              		.cfi_startproc
 738              		@ args = 0, pretend = 0, frame = 8
 739              		@ frame_needed = 1, uses_anonymous_args = 0
 740              		@ link register save eliminated.
 741 0000 80B4     		push	{r7}
 742              	.LCFI20:
 743              		.cfi_def_cfa_offset 4
 744              		.cfi_offset 7, -4
 745 0002 83B0     		sub	sp, sp, #12
 746              	.LCFI21:
 747              		.cfi_def_cfa_offset 16
ARM GAS  /tmp/ccZFOTRI.s 			page 23


 748 0004 00AF     		add	r7, sp, #0
 749              	.LCFI22:
 750              		.cfi_def_cfa_register 7
 751 0006 7860     		str	r0, [r7, #4]
 511:Drivers/STM32L4xx_HAL_Driver/Src/stm32l4xx_hal_flash_ex.c **** #if defined (STM32L4R5xx) || defined (STM32L4R7xx) || defined (STM32L4R9xx) || defined (STM32L4S5xx
 512:Drivers/STM32L4xx_HAL_Driver/Src/stm32l4xx_hal_flash_ex.c ****   if (READ_BIT(FLASH->OPTR, FLASH_OPTR_DBANK) != 0U)
 513:Drivers/STM32L4xx_HAL_Driver/Src/stm32l4xx_hal_flash_ex.c **** #endif
 514:Drivers/STM32L4xx_HAL_Driver/Src/stm32l4xx_hal_flash_ex.c ****   {
 515:Drivers/STM32L4xx_HAL_Driver/Src/stm32l4xx_hal_flash_ex.c ****     /* Check the parameters */
 516:Drivers/STM32L4xx_HAL_Driver/Src/stm32l4xx_hal_flash_ex.c ****     assert_param(IS_FLASH_BANK(Banks));
 517:Drivers/STM32L4xx_HAL_Driver/Src/stm32l4xx_hal_flash_ex.c **** 
 518:Drivers/STM32L4xx_HAL_Driver/Src/stm32l4xx_hal_flash_ex.c ****     /* Set the Mass Erase Bit for the bank 1 if requested */
 519:Drivers/STM32L4xx_HAL_Driver/Src/stm32l4xx_hal_flash_ex.c ****     if((Banks & FLASH_BANK_1) != 0U)
 752              		.loc 1 519 15
 753 0008 7B68     		ldr	r3, [r7, #4]
 754 000a 03F00103 		and	r3, r3, #1
 755              		.loc 1 519 7
 756 000e 002B     		cmp	r3, #0
 757 0010 05D0     		beq	.L46
 520:Drivers/STM32L4xx_HAL_Driver/Src/stm32l4xx_hal_flash_ex.c ****     {
 521:Drivers/STM32L4xx_HAL_Driver/Src/stm32l4xx_hal_flash_ex.c ****       SET_BIT(FLASH->CR, FLASH_CR_MER1);
 758              		.loc 1 521 7
 759 0012 0E4B     		ldr	r3, .L48
 760 0014 5B69     		ldr	r3, [r3, #20]
 761 0016 0D4A     		ldr	r2, .L48
 762 0018 43F00403 		orr	r3, r3, #4
 763 001c 5361     		str	r3, [r2, #20]
 764              	.L46:
 522:Drivers/STM32L4xx_HAL_Driver/Src/stm32l4xx_hal_flash_ex.c ****     }
 523:Drivers/STM32L4xx_HAL_Driver/Src/stm32l4xx_hal_flash_ex.c **** 
 524:Drivers/STM32L4xx_HAL_Driver/Src/stm32l4xx_hal_flash_ex.c **** #if defined (STM32L471xx) || defined (STM32L475xx) || defined (STM32L476xx) || defined (STM32L485xx
 525:Drivers/STM32L4xx_HAL_Driver/Src/stm32l4xx_hal_flash_ex.c ****     defined (STM32L496xx) || defined (STM32L4A6xx) || \
 526:Drivers/STM32L4xx_HAL_Driver/Src/stm32l4xx_hal_flash_ex.c ****     defined (STM32L4R5xx) || defined (STM32L4R7xx) || defined (STM32L4R9xx) || defined (STM32L4S5xx
 527:Drivers/STM32L4xx_HAL_Driver/Src/stm32l4xx_hal_flash_ex.c ****     /* Set the Mass Erase Bit for the bank 2 if requested */
 528:Drivers/STM32L4xx_HAL_Driver/Src/stm32l4xx_hal_flash_ex.c ****     if((Banks & FLASH_BANK_2) != 0U)
 765              		.loc 1 528 15
 766 001e 7B68     		ldr	r3, [r7, #4]
 767 0020 03F00203 		and	r3, r3, #2
 768              		.loc 1 528 7
 769 0024 002B     		cmp	r3, #0
 770 0026 05D0     		beq	.L47
 529:Drivers/STM32L4xx_HAL_Driver/Src/stm32l4xx_hal_flash_ex.c ****     {
 530:Drivers/STM32L4xx_HAL_Driver/Src/stm32l4xx_hal_flash_ex.c ****       SET_BIT(FLASH->CR, FLASH_CR_MER2);
 771              		.loc 1 530 7
 772 0028 084B     		ldr	r3, .L48
 773 002a 5B69     		ldr	r3, [r3, #20]
 774 002c 074A     		ldr	r2, .L48
 775 002e 43F40043 		orr	r3, r3, #32768
 776 0032 5361     		str	r3, [r2, #20]
 777              	.L47:
 531:Drivers/STM32L4xx_HAL_Driver/Src/stm32l4xx_hal_flash_ex.c ****     }
 532:Drivers/STM32L4xx_HAL_Driver/Src/stm32l4xx_hal_flash_ex.c **** #endif
 533:Drivers/STM32L4xx_HAL_Driver/Src/stm32l4xx_hal_flash_ex.c ****   }
 534:Drivers/STM32L4xx_HAL_Driver/Src/stm32l4xx_hal_flash_ex.c **** #if defined (STM32L4R5xx) || defined (STM32L4R7xx) || defined (STM32L4R9xx) || defined (STM32L4S5xx
 535:Drivers/STM32L4xx_HAL_Driver/Src/stm32l4xx_hal_flash_ex.c ****   else
 536:Drivers/STM32L4xx_HAL_Driver/Src/stm32l4xx_hal_flash_ex.c ****   {
 537:Drivers/STM32L4xx_HAL_Driver/Src/stm32l4xx_hal_flash_ex.c ****     SET_BIT(FLASH->CR, (FLASH_CR_MER1 | FLASH_CR_MER2));
ARM GAS  /tmp/ccZFOTRI.s 			page 24


 538:Drivers/STM32L4xx_HAL_Driver/Src/stm32l4xx_hal_flash_ex.c ****   }
 539:Drivers/STM32L4xx_HAL_Driver/Src/stm32l4xx_hal_flash_ex.c **** #endif
 540:Drivers/STM32L4xx_HAL_Driver/Src/stm32l4xx_hal_flash_ex.c **** 
 541:Drivers/STM32L4xx_HAL_Driver/Src/stm32l4xx_hal_flash_ex.c ****   /* Proceed to erase all sectors */
 542:Drivers/STM32L4xx_HAL_Driver/Src/stm32l4xx_hal_flash_ex.c ****   SET_BIT(FLASH->CR, FLASH_CR_STRT);
 778              		.loc 1 542 3
 779 0034 054B     		ldr	r3, .L48
 780 0036 5B69     		ldr	r3, [r3, #20]
 781 0038 044A     		ldr	r2, .L48
 782 003a 43F48033 		orr	r3, r3, #65536
 783 003e 5361     		str	r3, [r2, #20]
 543:Drivers/STM32L4xx_HAL_Driver/Src/stm32l4xx_hal_flash_ex.c **** }
 784              		.loc 1 543 1
 785 0040 00BF     		nop
 786 0042 0C37     		adds	r7, r7, #12
 787              	.LCFI23:
 788              		.cfi_def_cfa_offset 4
 789 0044 BD46     		mov	sp, r7
 790              	.LCFI24:
 791              		.cfi_def_cfa_register 13
 792              		@ sp needed
 793 0046 5DF8047B 		ldr	r7, [sp], #4
 794              	.LCFI25:
 795              		.cfi_restore 7
 796              		.cfi_def_cfa_offset 0
 797 004a 7047     		bx	lr
 798              	.L49:
 799              		.align	2
 800              	.L48:
 801 004c 00200240 		.word	1073881088
 802              		.cfi_endproc
 803              	.LFE134:
 805              		.section	.text.FLASH_PageErase,"ax",%progbits
 806              		.align	1
 807              		.global	FLASH_PageErase
 808              		.syntax unified
 809              		.thumb
 810              		.thumb_func
 811              		.fpu fpv4-sp-d16
 813              	FLASH_PageErase:
 814              	.LFB135:
 544:Drivers/STM32L4xx_HAL_Driver/Src/stm32l4xx_hal_flash_ex.c **** 
 545:Drivers/STM32L4xx_HAL_Driver/Src/stm32l4xx_hal_flash_ex.c **** /**
 546:Drivers/STM32L4xx_HAL_Driver/Src/stm32l4xx_hal_flash_ex.c ****   * @brief  Erase the specified FLASH memory page.
 547:Drivers/STM32L4xx_HAL_Driver/Src/stm32l4xx_hal_flash_ex.c ****   * @param  Page: FLASH page to erase
 548:Drivers/STM32L4xx_HAL_Driver/Src/stm32l4xx_hal_flash_ex.c ****   *         This parameter must be a value between 0 and (max number of pages in the bank - 1)
 549:Drivers/STM32L4xx_HAL_Driver/Src/stm32l4xx_hal_flash_ex.c ****   * @param  Banks: Bank(s) where the page will be erased
 550:Drivers/STM32L4xx_HAL_Driver/Src/stm32l4xx_hal_flash_ex.c ****   *          This parameter can be one of the following values:
 551:Drivers/STM32L4xx_HAL_Driver/Src/stm32l4xx_hal_flash_ex.c ****   *            @arg FLASH_BANK_1: Page in bank 1 to be erased
 552:Drivers/STM32L4xx_HAL_Driver/Src/stm32l4xx_hal_flash_ex.c ****   *            @arg FLASH_BANK_2: Page in bank 2 to be erased
 553:Drivers/STM32L4xx_HAL_Driver/Src/stm32l4xx_hal_flash_ex.c ****   * @retval None
 554:Drivers/STM32L4xx_HAL_Driver/Src/stm32l4xx_hal_flash_ex.c ****   */
 555:Drivers/STM32L4xx_HAL_Driver/Src/stm32l4xx_hal_flash_ex.c **** void FLASH_PageErase(uint32_t Page, uint32_t Banks)
 556:Drivers/STM32L4xx_HAL_Driver/Src/stm32l4xx_hal_flash_ex.c **** {
 815              		.loc 1 556 1
 816              		.cfi_startproc
 817              		@ args = 0, pretend = 0, frame = 8
ARM GAS  /tmp/ccZFOTRI.s 			page 25


 818              		@ frame_needed = 1, uses_anonymous_args = 0
 819              		@ link register save eliminated.
 820 0000 80B4     		push	{r7}
 821              	.LCFI26:
 822              		.cfi_def_cfa_offset 4
 823              		.cfi_offset 7, -4
 824 0002 83B0     		sub	sp, sp, #12
 825              	.LCFI27:
 826              		.cfi_def_cfa_offset 16
 827 0004 00AF     		add	r7, sp, #0
 828              	.LCFI28:
 829              		.cfi_def_cfa_register 7
 830 0006 7860     		str	r0, [r7, #4]
 831 0008 3960     		str	r1, [r7]
 557:Drivers/STM32L4xx_HAL_Driver/Src/stm32l4xx_hal_flash_ex.c ****   /* Check the parameters */
 558:Drivers/STM32L4xx_HAL_Driver/Src/stm32l4xx_hal_flash_ex.c ****   assert_param(IS_FLASH_PAGE(Page));
 559:Drivers/STM32L4xx_HAL_Driver/Src/stm32l4xx_hal_flash_ex.c **** 
 560:Drivers/STM32L4xx_HAL_Driver/Src/stm32l4xx_hal_flash_ex.c **** #if defined (STM32L471xx) || defined (STM32L475xx) || defined (STM32L476xx) || defined (STM32L485xx
 561:Drivers/STM32L4xx_HAL_Driver/Src/stm32l4xx_hal_flash_ex.c ****     defined (STM32L496xx) || defined (STM32L4A6xx) || \
 562:Drivers/STM32L4xx_HAL_Driver/Src/stm32l4xx_hal_flash_ex.c ****     defined (STM32L4R5xx) || defined (STM32L4R7xx) || defined (STM32L4R9xx) || defined (STM32L4S5xx
 563:Drivers/STM32L4xx_HAL_Driver/Src/stm32l4xx_hal_flash_ex.c **** #if defined (STM32L4R5xx) || defined (STM32L4R7xx) || defined (STM32L4R9xx) || defined (STM32L4S5xx
 564:Drivers/STM32L4xx_HAL_Driver/Src/stm32l4xx_hal_flash_ex.c ****   if(READ_BIT(FLASH->OPTR, FLASH_OPTR_DBANK) == 0U)
 565:Drivers/STM32L4xx_HAL_Driver/Src/stm32l4xx_hal_flash_ex.c ****   {
 566:Drivers/STM32L4xx_HAL_Driver/Src/stm32l4xx_hal_flash_ex.c ****     CLEAR_BIT(FLASH->CR, FLASH_CR_BKER);
 567:Drivers/STM32L4xx_HAL_Driver/Src/stm32l4xx_hal_flash_ex.c ****   }
 568:Drivers/STM32L4xx_HAL_Driver/Src/stm32l4xx_hal_flash_ex.c ****   else
 569:Drivers/STM32L4xx_HAL_Driver/Src/stm32l4xx_hal_flash_ex.c **** #endif
 570:Drivers/STM32L4xx_HAL_Driver/Src/stm32l4xx_hal_flash_ex.c ****   {
 571:Drivers/STM32L4xx_HAL_Driver/Src/stm32l4xx_hal_flash_ex.c ****     assert_param(IS_FLASH_BANK_EXCLUSIVE(Banks));
 572:Drivers/STM32L4xx_HAL_Driver/Src/stm32l4xx_hal_flash_ex.c **** 
 573:Drivers/STM32L4xx_HAL_Driver/Src/stm32l4xx_hal_flash_ex.c ****     if((Banks & FLASH_BANK_1) != 0U)
 832              		.loc 1 573 15
 833 000a 3B68     		ldr	r3, [r7]
 834 000c 03F00103 		and	r3, r3, #1
 835              		.loc 1 573 7
 836 0010 002B     		cmp	r3, #0
 837 0012 06D0     		beq	.L51
 574:Drivers/STM32L4xx_HAL_Driver/Src/stm32l4xx_hal_flash_ex.c ****     {
 575:Drivers/STM32L4xx_HAL_Driver/Src/stm32l4xx_hal_flash_ex.c ****       CLEAR_BIT(FLASH->CR, FLASH_CR_BKER);
 838              		.loc 1 575 7
 839 0014 144B     		ldr	r3, .L53
 840 0016 5B69     		ldr	r3, [r3, #20]
 841 0018 134A     		ldr	r2, .L53
 842 001a 23F40063 		bic	r3, r3, #2048
 843 001e 5361     		str	r3, [r2, #20]
 844 0020 05E0     		b	.L52
 845              	.L51:
 576:Drivers/STM32L4xx_HAL_Driver/Src/stm32l4xx_hal_flash_ex.c ****     }
 577:Drivers/STM32L4xx_HAL_Driver/Src/stm32l4xx_hal_flash_ex.c ****     else
 578:Drivers/STM32L4xx_HAL_Driver/Src/stm32l4xx_hal_flash_ex.c ****     {
 579:Drivers/STM32L4xx_HAL_Driver/Src/stm32l4xx_hal_flash_ex.c ****       SET_BIT(FLASH->CR, FLASH_CR_BKER);
 846              		.loc 1 579 7
 847 0022 114B     		ldr	r3, .L53
 848 0024 5B69     		ldr	r3, [r3, #20]
 849 0026 104A     		ldr	r2, .L53
 850 0028 43F40063 		orr	r3, r3, #2048
 851 002c 5361     		str	r3, [r2, #20]
ARM GAS  /tmp/ccZFOTRI.s 			page 26


 852              	.L52:
 580:Drivers/STM32L4xx_HAL_Driver/Src/stm32l4xx_hal_flash_ex.c ****     }
 581:Drivers/STM32L4xx_HAL_Driver/Src/stm32l4xx_hal_flash_ex.c ****   }
 582:Drivers/STM32L4xx_HAL_Driver/Src/stm32l4xx_hal_flash_ex.c **** #else
 583:Drivers/STM32L4xx_HAL_Driver/Src/stm32l4xx_hal_flash_ex.c ****   /* Prevent unused argument(s) compilation warning */
 584:Drivers/STM32L4xx_HAL_Driver/Src/stm32l4xx_hal_flash_ex.c ****   UNUSED(Banks);
 585:Drivers/STM32L4xx_HAL_Driver/Src/stm32l4xx_hal_flash_ex.c **** #endif
 586:Drivers/STM32L4xx_HAL_Driver/Src/stm32l4xx_hal_flash_ex.c **** 
 587:Drivers/STM32L4xx_HAL_Driver/Src/stm32l4xx_hal_flash_ex.c ****   /* Proceed to erase the page */
 588:Drivers/STM32L4xx_HAL_Driver/Src/stm32l4xx_hal_flash_ex.c ****   MODIFY_REG(FLASH->CR, FLASH_CR_PNB, ((Page & 0xFFU) << FLASH_CR_PNB_Pos));
 853              		.loc 1 588 3
 854 002e 0E4B     		ldr	r3, .L53
 855 0030 5B69     		ldr	r3, [r3, #20]
 856 0032 23F4FF62 		bic	r2, r3, #2040
 857 0036 7B68     		ldr	r3, [r7, #4]
 858 0038 DB00     		lsls	r3, r3, #3
 859 003a 03F4FF63 		and	r3, r3, #2040
 860 003e 0A49     		ldr	r1, .L53
 861 0040 1343     		orrs	r3, r3, r2
 862 0042 4B61     		str	r3, [r1, #20]
 589:Drivers/STM32L4xx_HAL_Driver/Src/stm32l4xx_hal_flash_ex.c ****   SET_BIT(FLASH->CR, FLASH_CR_PER);
 863              		.loc 1 589 3
 864 0044 084B     		ldr	r3, .L53
 865 0046 5B69     		ldr	r3, [r3, #20]
 866 0048 074A     		ldr	r2, .L53
 867 004a 43F00203 		orr	r3, r3, #2
 868 004e 5361     		str	r3, [r2, #20]
 590:Drivers/STM32L4xx_HAL_Driver/Src/stm32l4xx_hal_flash_ex.c ****   SET_BIT(FLASH->CR, FLASH_CR_STRT);
 869              		.loc 1 590 3
 870 0050 054B     		ldr	r3, .L53
 871 0052 5B69     		ldr	r3, [r3, #20]
 872 0054 044A     		ldr	r2, .L53
 873 0056 43F48033 		orr	r3, r3, #65536
 874 005a 5361     		str	r3, [r2, #20]
 591:Drivers/STM32L4xx_HAL_Driver/Src/stm32l4xx_hal_flash_ex.c **** }
 875              		.loc 1 591 1
 876 005c 00BF     		nop
 877 005e 0C37     		adds	r7, r7, #12
 878              	.LCFI29:
 879              		.cfi_def_cfa_offset 4
 880 0060 BD46     		mov	sp, r7
 881              	.LCFI30:
 882              		.cfi_def_cfa_register 13
 883              		@ sp needed
 884 0062 5DF8047B 		ldr	r7, [sp], #4
 885              	.LCFI31:
 886              		.cfi_restore 7
 887              		.cfi_def_cfa_offset 0
 888 0066 7047     		bx	lr
 889              	.L54:
 890              		.align	2
 891              	.L53:
 892 0068 00200240 		.word	1073881088
 893              		.cfi_endproc
 894              	.LFE135:
 896              		.section	.text.FLASH_FlushCaches,"ax",%progbits
 897              		.align	1
ARM GAS  /tmp/ccZFOTRI.s 			page 27


 898              		.global	FLASH_FlushCaches
 899              		.syntax unified
 900              		.thumb
 901              		.thumb_func
 902              		.fpu fpv4-sp-d16
 904              	FLASH_FlushCaches:
 905              	.LFB136:
 592:Drivers/STM32L4xx_HAL_Driver/Src/stm32l4xx_hal_flash_ex.c **** 
 593:Drivers/STM32L4xx_HAL_Driver/Src/stm32l4xx_hal_flash_ex.c **** /**
 594:Drivers/STM32L4xx_HAL_Driver/Src/stm32l4xx_hal_flash_ex.c ****   * @brief  Flush the instruction and data caches.
 595:Drivers/STM32L4xx_HAL_Driver/Src/stm32l4xx_hal_flash_ex.c ****   * @retval None
 596:Drivers/STM32L4xx_HAL_Driver/Src/stm32l4xx_hal_flash_ex.c ****   */
 597:Drivers/STM32L4xx_HAL_Driver/Src/stm32l4xx_hal_flash_ex.c **** void FLASH_FlushCaches(void)
 598:Drivers/STM32L4xx_HAL_Driver/Src/stm32l4xx_hal_flash_ex.c **** {
 906              		.loc 1 598 1
 907              		.cfi_startproc
 908              		@ args = 0, pretend = 0, frame = 8
 909              		@ frame_needed = 1, uses_anonymous_args = 0
 910              		@ link register save eliminated.
 911 0000 80B4     		push	{r7}
 912              	.LCFI32:
 913              		.cfi_def_cfa_offset 4
 914              		.cfi_offset 7, -4
 915 0002 83B0     		sub	sp, sp, #12
 916              	.LCFI33:
 917              		.cfi_def_cfa_offset 16
 918 0004 00AF     		add	r7, sp, #0
 919              	.LCFI34:
 920              		.cfi_def_cfa_register 7
 599:Drivers/STM32L4xx_HAL_Driver/Src/stm32l4xx_hal_flash_ex.c ****   FLASH_CacheTypeDef cache = pFlash.CacheToReactivate;
 921              		.loc 1 599 22
 922 0006 1E4B     		ldr	r3, .L60
 923 0008 1B7F     		ldrb	r3, [r3, #28]
 924 000a FB71     		strb	r3, [r7, #7]
 600:Drivers/STM32L4xx_HAL_Driver/Src/stm32l4xx_hal_flash_ex.c **** 
 601:Drivers/STM32L4xx_HAL_Driver/Src/stm32l4xx_hal_flash_ex.c ****   /* Flush instruction cache  */
 602:Drivers/STM32L4xx_HAL_Driver/Src/stm32l4xx_hal_flash_ex.c ****   if((cache == FLASH_CACHE_ICACHE_ENABLED) ||
 925              		.loc 1 602 5
 926 000c FB79     		ldrb	r3, [r7, #7]	@ zero_extendqisi2
 927 000e 012B     		cmp	r3, #1
 928 0010 02D0     		beq	.L56
 929              		.loc 1 602 44 discriminator 1
 930 0012 FB79     		ldrb	r3, [r7, #7]	@ zero_extendqisi2
 931 0014 032B     		cmp	r3, #3
 932 0016 11D1     		bne	.L57
 933              	.L56:
 603:Drivers/STM32L4xx_HAL_Driver/Src/stm32l4xx_hal_flash_ex.c ****      (cache == FLASH_CACHE_ICACHE_DCACHE_ENABLED))
 604:Drivers/STM32L4xx_HAL_Driver/Src/stm32l4xx_hal_flash_ex.c ****   {
 605:Drivers/STM32L4xx_HAL_Driver/Src/stm32l4xx_hal_flash_ex.c ****     /* Reset instruction cache */
 606:Drivers/STM32L4xx_HAL_Driver/Src/stm32l4xx_hal_flash_ex.c ****     __HAL_FLASH_INSTRUCTION_CACHE_RESET();
 934              		.loc 1 606 5
 935 0018 1A4B     		ldr	r3, .L60+4
 936 001a 1B68     		ldr	r3, [r3]
 937 001c 194A     		ldr	r2, .L60+4
 938 001e 43F40063 		orr	r3, r3, #2048
 939 0022 1360     		str	r3, [r2]
 940 0024 174B     		ldr	r3, .L60+4
ARM GAS  /tmp/ccZFOTRI.s 			page 28


 941 0026 1B68     		ldr	r3, [r3]
 942 0028 164A     		ldr	r2, .L60+4
 943 002a 23F40063 		bic	r3, r3, #2048
 944 002e 1360     		str	r3, [r2]
 607:Drivers/STM32L4xx_HAL_Driver/Src/stm32l4xx_hal_flash_ex.c ****     /* Enable instruction cache */
 608:Drivers/STM32L4xx_HAL_Driver/Src/stm32l4xx_hal_flash_ex.c ****     __HAL_FLASH_INSTRUCTION_CACHE_ENABLE();
 945              		.loc 1 608 5
 946 0030 144B     		ldr	r3, .L60+4
 947 0032 1B68     		ldr	r3, [r3]
 948 0034 134A     		ldr	r2, .L60+4
 949 0036 43F40073 		orr	r3, r3, #512
 950 003a 1360     		str	r3, [r2]
 951              	.L57:
 609:Drivers/STM32L4xx_HAL_Driver/Src/stm32l4xx_hal_flash_ex.c ****   }
 610:Drivers/STM32L4xx_HAL_Driver/Src/stm32l4xx_hal_flash_ex.c **** 
 611:Drivers/STM32L4xx_HAL_Driver/Src/stm32l4xx_hal_flash_ex.c ****   /* Flush data cache */
 612:Drivers/STM32L4xx_HAL_Driver/Src/stm32l4xx_hal_flash_ex.c ****   if((cache == FLASH_CACHE_DCACHE_ENABLED) ||
 952              		.loc 1 612 5
 953 003c FB79     		ldrb	r3, [r7, #7]	@ zero_extendqisi2
 954 003e 022B     		cmp	r3, #2
 955 0040 02D0     		beq	.L58
 956              		.loc 1 612 44 discriminator 1
 957 0042 FB79     		ldrb	r3, [r7, #7]	@ zero_extendqisi2
 958 0044 032B     		cmp	r3, #3
 959 0046 11D1     		bne	.L59
 960              	.L58:
 613:Drivers/STM32L4xx_HAL_Driver/Src/stm32l4xx_hal_flash_ex.c ****      (cache == FLASH_CACHE_ICACHE_DCACHE_ENABLED))
 614:Drivers/STM32L4xx_HAL_Driver/Src/stm32l4xx_hal_flash_ex.c ****   {
 615:Drivers/STM32L4xx_HAL_Driver/Src/stm32l4xx_hal_flash_ex.c ****     /* Reset data cache */
 616:Drivers/STM32L4xx_HAL_Driver/Src/stm32l4xx_hal_flash_ex.c ****     __HAL_FLASH_DATA_CACHE_RESET();
 961              		.loc 1 616 5
 962 0048 0E4B     		ldr	r3, .L60+4
 963 004a 1B68     		ldr	r3, [r3]
 964 004c 0D4A     		ldr	r2, .L60+4
 965 004e 43F48053 		orr	r3, r3, #4096
 966 0052 1360     		str	r3, [r2]
 967 0054 0B4B     		ldr	r3, .L60+4
 968 0056 1B68     		ldr	r3, [r3]
 969 0058 0A4A     		ldr	r2, .L60+4
 970 005a 23F48053 		bic	r3, r3, #4096
 971 005e 1360     		str	r3, [r2]
 617:Drivers/STM32L4xx_HAL_Driver/Src/stm32l4xx_hal_flash_ex.c ****     /* Enable data cache */
 618:Drivers/STM32L4xx_HAL_Driver/Src/stm32l4xx_hal_flash_ex.c ****     __HAL_FLASH_DATA_CACHE_ENABLE();
 972              		.loc 1 618 5
 973 0060 084B     		ldr	r3, .L60+4
 974 0062 1B68     		ldr	r3, [r3]
 975 0064 074A     		ldr	r2, .L60+4
 976 0066 43F48063 		orr	r3, r3, #1024
 977 006a 1360     		str	r3, [r2]
 978              	.L59:
 619:Drivers/STM32L4xx_HAL_Driver/Src/stm32l4xx_hal_flash_ex.c ****   }
 620:Drivers/STM32L4xx_HAL_Driver/Src/stm32l4xx_hal_flash_ex.c **** 
 621:Drivers/STM32L4xx_HAL_Driver/Src/stm32l4xx_hal_flash_ex.c ****   /* Reset internal variable */
 622:Drivers/STM32L4xx_HAL_Driver/Src/stm32l4xx_hal_flash_ex.c ****   pFlash.CacheToReactivate = FLASH_CACHE_DISABLED;
 979              		.loc 1 622 28
 980 006c 044B     		ldr	r3, .L60
 981 006e 0022     		movs	r2, #0
ARM GAS  /tmp/ccZFOTRI.s 			page 29


 982 0070 1A77     		strb	r2, [r3, #28]
 623:Drivers/STM32L4xx_HAL_Driver/Src/stm32l4xx_hal_flash_ex.c **** }
 983              		.loc 1 623 1
 984 0072 00BF     		nop
 985 0074 0C37     		adds	r7, r7, #12
 986              	.LCFI35:
 987              		.cfi_def_cfa_offset 4
 988 0076 BD46     		mov	sp, r7
 989              	.LCFI36:
 990              		.cfi_def_cfa_register 13
 991              		@ sp needed
 992 0078 5DF8047B 		ldr	r7, [sp], #4
 993              	.LCFI37:
 994              		.cfi_restore 7
 995              		.cfi_def_cfa_offset 0
 996 007c 7047     		bx	lr
 997              	.L61:
 998 007e 00BF     		.align	2
 999              	.L60:
 1000 0080 00000000 		.word	pFlash
 1001 0084 00200240 		.word	1073881088
 1002              		.cfi_endproc
 1003              	.LFE136:
 1005              		.section	.text.FLASH_OB_WRPConfig,"ax",%progbits
 1006              		.align	1
 1007              		.syntax unified
 1008              		.thumb
 1009              		.thumb_func
 1010              		.fpu fpv4-sp-d16
 1012              	FLASH_OB_WRPConfig:
 1013              	.LFB137:
 624:Drivers/STM32L4xx_HAL_Driver/Src/stm32l4xx_hal_flash_ex.c **** 
 625:Drivers/STM32L4xx_HAL_Driver/Src/stm32l4xx_hal_flash_ex.c **** /**
 626:Drivers/STM32L4xx_HAL_Driver/Src/stm32l4xx_hal_flash_ex.c ****   * @brief  Configure the write protection of the desired pages.
 627:Drivers/STM32L4xx_HAL_Driver/Src/stm32l4xx_hal_flash_ex.c ****   *
 628:Drivers/STM32L4xx_HAL_Driver/Src/stm32l4xx_hal_flash_ex.c ****   * @note   When the memory read protection level is selected (RDP level = 1),
 629:Drivers/STM32L4xx_HAL_Driver/Src/stm32l4xx_hal_flash_ex.c ****   *         it is not possible to program or erase Flash memory if the CPU debug
 630:Drivers/STM32L4xx_HAL_Driver/Src/stm32l4xx_hal_flash_ex.c ****   *         features are connected (JTAG or single wire) or boot code is being
 631:Drivers/STM32L4xx_HAL_Driver/Src/stm32l4xx_hal_flash_ex.c ****   *         executed from RAM or System flash, even if WRP is not activated.
 632:Drivers/STM32L4xx_HAL_Driver/Src/stm32l4xx_hal_flash_ex.c ****   * @note   To configure the WRP options, the option lock bit OPTLOCK must be
 633:Drivers/STM32L4xx_HAL_Driver/Src/stm32l4xx_hal_flash_ex.c ****   *         cleared with the call of the HAL_FLASH_OB_Unlock() function.
 634:Drivers/STM32L4xx_HAL_Driver/Src/stm32l4xx_hal_flash_ex.c ****   * @note   To validate the WRP options, the option bytes must be reloaded
 635:Drivers/STM32L4xx_HAL_Driver/Src/stm32l4xx_hal_flash_ex.c ****   *         through the call of the HAL_FLASH_OB_Launch() function.
 636:Drivers/STM32L4xx_HAL_Driver/Src/stm32l4xx_hal_flash_ex.c ****   *
 637:Drivers/STM32L4xx_HAL_Driver/Src/stm32l4xx_hal_flash_ex.c ****   * @param  WRPArea: specifies the area to be configured.
 638:Drivers/STM32L4xx_HAL_Driver/Src/stm32l4xx_hal_flash_ex.c ****   *          This parameter can be one of the following values:
 639:Drivers/STM32L4xx_HAL_Driver/Src/stm32l4xx_hal_flash_ex.c ****   *            @arg OB_WRPAREA_BANK1_AREAA: Flash Bank 1 Area A
 640:Drivers/STM32L4xx_HAL_Driver/Src/stm32l4xx_hal_flash_ex.c ****   *            @arg OB_WRPAREA_BANK1_AREAB: Flash Bank 1 Area B
 641:Drivers/STM32L4xx_HAL_Driver/Src/stm32l4xx_hal_flash_ex.c ****   *            @arg OB_WRPAREA_BANK2_AREAA: Flash Bank 2 Area A  (don't apply for STM32L43x/STM32L4
 642:Drivers/STM32L4xx_HAL_Driver/Src/stm32l4xx_hal_flash_ex.c ****   *            @arg OB_WRPAREA_BANK2_AREAB: Flash Bank 2 Area B  (don't apply for STM32L43x/STM32L4
 643:Drivers/STM32L4xx_HAL_Driver/Src/stm32l4xx_hal_flash_ex.c ****   *
 644:Drivers/STM32L4xx_HAL_Driver/Src/stm32l4xx_hal_flash_ex.c ****   * @param  WRPStartOffset: specifies the start page of the write protected area
 645:Drivers/STM32L4xx_HAL_Driver/Src/stm32l4xx_hal_flash_ex.c ****   *          This parameter can be page number between 0 and (max number of pages in the bank - 1)
 646:Drivers/STM32L4xx_HAL_Driver/Src/stm32l4xx_hal_flash_ex.c ****   *
 647:Drivers/STM32L4xx_HAL_Driver/Src/stm32l4xx_hal_flash_ex.c ****   * @param  WRDPEndOffset: specifies the end page of the write protected area
 648:Drivers/STM32L4xx_HAL_Driver/Src/stm32l4xx_hal_flash_ex.c ****   *          This parameter can be page number between WRPStartOffset and (max number of pages in t
 649:Drivers/STM32L4xx_HAL_Driver/Src/stm32l4xx_hal_flash_ex.c ****   *
ARM GAS  /tmp/ccZFOTRI.s 			page 30


 650:Drivers/STM32L4xx_HAL_Driver/Src/stm32l4xx_hal_flash_ex.c ****   * @retval HAL Status
 651:Drivers/STM32L4xx_HAL_Driver/Src/stm32l4xx_hal_flash_ex.c ****   */
 652:Drivers/STM32L4xx_HAL_Driver/Src/stm32l4xx_hal_flash_ex.c **** static HAL_StatusTypeDef FLASH_OB_WRPConfig(uint32_t WRPArea, uint32_t WRPStartOffset, uint32_t WRD
 653:Drivers/STM32L4xx_HAL_Driver/Src/stm32l4xx_hal_flash_ex.c **** {
 1014              		.loc 1 653 1
 1015              		.cfi_startproc
 1016              		@ args = 0, pretend = 0, frame = 24
 1017              		@ frame_needed = 1, uses_anonymous_args = 0
 1018 0000 80B5     		push	{r7, lr}
 1019              	.LCFI38:
 1020              		.cfi_def_cfa_offset 8
 1021              		.cfi_offset 7, -8
 1022              		.cfi_offset 14, -4
 1023 0002 86B0     		sub	sp, sp, #24
 1024              	.LCFI39:
 1025              		.cfi_def_cfa_offset 32
 1026 0004 00AF     		add	r7, sp, #0
 1027              	.LCFI40:
 1028              		.cfi_def_cfa_register 7
 1029 0006 F860     		str	r0, [r7, #12]
 1030 0008 B960     		str	r1, [r7, #8]
 1031 000a 7A60     		str	r2, [r7, #4]
 654:Drivers/STM32L4xx_HAL_Driver/Src/stm32l4xx_hal_flash_ex.c ****   HAL_StatusTypeDef status;
 655:Drivers/STM32L4xx_HAL_Driver/Src/stm32l4xx_hal_flash_ex.c **** 
 656:Drivers/STM32L4xx_HAL_Driver/Src/stm32l4xx_hal_flash_ex.c ****   /* Check the parameters */
 657:Drivers/STM32L4xx_HAL_Driver/Src/stm32l4xx_hal_flash_ex.c ****   assert_param(IS_OB_WRPAREA(WRPArea));
 658:Drivers/STM32L4xx_HAL_Driver/Src/stm32l4xx_hal_flash_ex.c ****   assert_param(IS_FLASH_PAGE(WRPStartOffset));
 659:Drivers/STM32L4xx_HAL_Driver/Src/stm32l4xx_hal_flash_ex.c ****   assert_param(IS_FLASH_PAGE(WRDPEndOffset));
 660:Drivers/STM32L4xx_HAL_Driver/Src/stm32l4xx_hal_flash_ex.c **** 
 661:Drivers/STM32L4xx_HAL_Driver/Src/stm32l4xx_hal_flash_ex.c ****   /* Wait for last operation to be completed */
 662:Drivers/STM32L4xx_HAL_Driver/Src/stm32l4xx_hal_flash_ex.c ****   status = FLASH_WaitForLastOperation((uint32_t)FLASH_TIMEOUT_VALUE);
 1032              		.loc 1 662 12
 1033 000c 4CF25030 		movw	r0, #50000
 1034 0010 FFF7FEFF 		bl	FLASH_WaitForLastOperation
 1035 0014 0346     		mov	r3, r0
 1036 0016 FB75     		strb	r3, [r7, #23]
 663:Drivers/STM32L4xx_HAL_Driver/Src/stm32l4xx_hal_flash_ex.c **** 
 664:Drivers/STM32L4xx_HAL_Driver/Src/stm32l4xx_hal_flash_ex.c ****   if(status == HAL_OK)
 1037              		.loc 1 664 5
 1038 0018 FB7D     		ldrb	r3, [r7, #23]	@ zero_extendqisi2
 1039 001a 002B     		cmp	r3, #0
 1040 001c 4CD1     		bne	.L63
 665:Drivers/STM32L4xx_HAL_Driver/Src/stm32l4xx_hal_flash_ex.c ****   {
 666:Drivers/STM32L4xx_HAL_Driver/Src/stm32l4xx_hal_flash_ex.c ****     /* Configure the write protected area */
 667:Drivers/STM32L4xx_HAL_Driver/Src/stm32l4xx_hal_flash_ex.c ****     if(WRPArea == OB_WRPAREA_BANK1_AREAA)
 1041              		.loc 1 667 7
 1042 001e FB68     		ldr	r3, [r7, #12]
 1043 0020 002B     		cmp	r3, #0
 1044 0022 0BD1     		bne	.L64
 668:Drivers/STM32L4xx_HAL_Driver/Src/stm32l4xx_hal_flash_ex.c ****     {
 669:Drivers/STM32L4xx_HAL_Driver/Src/stm32l4xx_hal_flash_ex.c ****       MODIFY_REG(FLASH->WRP1AR, (FLASH_WRP1AR_WRP1A_STRT | FLASH_WRP1AR_WRP1A_END),
 1045              		.loc 1 669 7
 1046 0024 274B     		ldr	r3, .L69
 1047 0026 DB6A     		ldr	r3, [r3, #44]
 1048 0028 03F0FF22 		and	r2, r3, #-16711936
 1049 002c 7B68     		ldr	r3, [r7, #4]
 1050 002e 1904     		lsls	r1, r3, #16
ARM GAS  /tmp/ccZFOTRI.s 			page 31


 1051 0030 BB68     		ldr	r3, [r7, #8]
 1052 0032 0B43     		orrs	r3, r3, r1
 1053 0034 2349     		ldr	r1, .L69
 1054 0036 1343     		orrs	r3, r3, r2
 1055 0038 CB62     		str	r3, [r1, #44]
 1056 003a 2BE0     		b	.L65
 1057              	.L64:
 670:Drivers/STM32L4xx_HAL_Driver/Src/stm32l4xx_hal_flash_ex.c ****                  (WRPStartOffset | (WRDPEndOffset << 16)));
 671:Drivers/STM32L4xx_HAL_Driver/Src/stm32l4xx_hal_flash_ex.c ****     }
 672:Drivers/STM32L4xx_HAL_Driver/Src/stm32l4xx_hal_flash_ex.c ****     else if(WRPArea == OB_WRPAREA_BANK1_AREAB)
 1058              		.loc 1 672 12
 1059 003c FB68     		ldr	r3, [r7, #12]
 1060 003e 012B     		cmp	r3, #1
 1061 0040 0BD1     		bne	.L66
 673:Drivers/STM32L4xx_HAL_Driver/Src/stm32l4xx_hal_flash_ex.c ****     {
 674:Drivers/STM32L4xx_HAL_Driver/Src/stm32l4xx_hal_flash_ex.c ****       MODIFY_REG(FLASH->WRP1BR, (FLASH_WRP1BR_WRP1B_STRT | FLASH_WRP1BR_WRP1B_END),
 1062              		.loc 1 674 7
 1063 0042 204B     		ldr	r3, .L69
 1064 0044 1B6B     		ldr	r3, [r3, #48]
 1065 0046 03F0FF22 		and	r2, r3, #-16711936
 1066 004a 7B68     		ldr	r3, [r7, #4]
 1067 004c 1904     		lsls	r1, r3, #16
 1068 004e BB68     		ldr	r3, [r7, #8]
 1069 0050 0B43     		orrs	r3, r3, r1
 1070 0052 1C49     		ldr	r1, .L69
 1071 0054 1343     		orrs	r3, r3, r2
 1072 0056 0B63     		str	r3, [r1, #48]
 1073 0058 1CE0     		b	.L65
 1074              	.L66:
 675:Drivers/STM32L4xx_HAL_Driver/Src/stm32l4xx_hal_flash_ex.c ****                  (WRPStartOffset | (WRDPEndOffset << 16)));
 676:Drivers/STM32L4xx_HAL_Driver/Src/stm32l4xx_hal_flash_ex.c ****     }
 677:Drivers/STM32L4xx_HAL_Driver/Src/stm32l4xx_hal_flash_ex.c **** #if defined (STM32L471xx) || defined (STM32L475xx) || defined (STM32L476xx) || defined (STM32L485xx
 678:Drivers/STM32L4xx_HAL_Driver/Src/stm32l4xx_hal_flash_ex.c ****     defined (STM32L496xx) || defined (STM32L4A6xx) || \
 679:Drivers/STM32L4xx_HAL_Driver/Src/stm32l4xx_hal_flash_ex.c ****     defined (STM32L4R5xx) || defined (STM32L4R7xx) || defined (STM32L4R9xx) || defined (STM32L4S5xx
 680:Drivers/STM32L4xx_HAL_Driver/Src/stm32l4xx_hal_flash_ex.c ****     else if(WRPArea == OB_WRPAREA_BANK2_AREAA)
 1075              		.loc 1 680 12
 1076 005a FB68     		ldr	r3, [r7, #12]
 1077 005c 022B     		cmp	r3, #2
 1078 005e 0BD1     		bne	.L67
 681:Drivers/STM32L4xx_HAL_Driver/Src/stm32l4xx_hal_flash_ex.c ****     {
 682:Drivers/STM32L4xx_HAL_Driver/Src/stm32l4xx_hal_flash_ex.c ****       MODIFY_REG(FLASH->WRP2AR, (FLASH_WRP2AR_WRP2A_STRT | FLASH_WRP2AR_WRP2A_END),
 1079              		.loc 1 682 7
 1080 0060 184B     		ldr	r3, .L69
 1081 0062 DB6C     		ldr	r3, [r3, #76]
 1082 0064 03F0FF22 		and	r2, r3, #-16711936
 1083 0068 7B68     		ldr	r3, [r7, #4]
 1084 006a 1904     		lsls	r1, r3, #16
 1085 006c BB68     		ldr	r3, [r7, #8]
 1086 006e 0B43     		orrs	r3, r3, r1
 1087 0070 1449     		ldr	r1, .L69
 1088 0072 1343     		orrs	r3, r3, r2
 1089 0074 CB64     		str	r3, [r1, #76]
 1090 0076 0DE0     		b	.L65
 1091              	.L67:
 683:Drivers/STM32L4xx_HAL_Driver/Src/stm32l4xx_hal_flash_ex.c ****                  (WRPStartOffset | (WRDPEndOffset << 16)));
 684:Drivers/STM32L4xx_HAL_Driver/Src/stm32l4xx_hal_flash_ex.c ****     }
 685:Drivers/STM32L4xx_HAL_Driver/Src/stm32l4xx_hal_flash_ex.c ****     else if(WRPArea == OB_WRPAREA_BANK2_AREAB)
ARM GAS  /tmp/ccZFOTRI.s 			page 32


 1092              		.loc 1 685 12
 1093 0078 FB68     		ldr	r3, [r7, #12]
 1094 007a 042B     		cmp	r3, #4
 1095 007c 0AD1     		bne	.L65
 686:Drivers/STM32L4xx_HAL_Driver/Src/stm32l4xx_hal_flash_ex.c ****     {
 687:Drivers/STM32L4xx_HAL_Driver/Src/stm32l4xx_hal_flash_ex.c ****       MODIFY_REG(FLASH->WRP2BR, (FLASH_WRP2BR_WRP2B_STRT | FLASH_WRP2BR_WRP2B_END),
 1096              		.loc 1 687 7
 1097 007e 114B     		ldr	r3, .L69
 1098 0080 1B6D     		ldr	r3, [r3, #80]
 1099 0082 03F0FF22 		and	r2, r3, #-16711936
 1100 0086 7B68     		ldr	r3, [r7, #4]
 1101 0088 1904     		lsls	r1, r3, #16
 1102 008a BB68     		ldr	r3, [r7, #8]
 1103 008c 0B43     		orrs	r3, r3, r1
 1104 008e 0D49     		ldr	r1, .L69
 1105 0090 1343     		orrs	r3, r3, r2
 1106 0092 0B65     		str	r3, [r1, #80]
 1107              	.L65:
 688:Drivers/STM32L4xx_HAL_Driver/Src/stm32l4xx_hal_flash_ex.c ****                  (WRPStartOffset | (WRDPEndOffset << 16)));
 689:Drivers/STM32L4xx_HAL_Driver/Src/stm32l4xx_hal_flash_ex.c ****     }
 690:Drivers/STM32L4xx_HAL_Driver/Src/stm32l4xx_hal_flash_ex.c **** #endif
 691:Drivers/STM32L4xx_HAL_Driver/Src/stm32l4xx_hal_flash_ex.c ****     else
 692:Drivers/STM32L4xx_HAL_Driver/Src/stm32l4xx_hal_flash_ex.c ****     {
 693:Drivers/STM32L4xx_HAL_Driver/Src/stm32l4xx_hal_flash_ex.c ****       /* Nothing to do */
 694:Drivers/STM32L4xx_HAL_Driver/Src/stm32l4xx_hal_flash_ex.c ****     }
 695:Drivers/STM32L4xx_HAL_Driver/Src/stm32l4xx_hal_flash_ex.c **** 
 696:Drivers/STM32L4xx_HAL_Driver/Src/stm32l4xx_hal_flash_ex.c ****     /* Set OPTSTRT Bit */
 697:Drivers/STM32L4xx_HAL_Driver/Src/stm32l4xx_hal_flash_ex.c ****     SET_BIT(FLASH->CR, FLASH_CR_OPTSTRT);
 1108              		.loc 1 697 5
 1109 0094 0B4B     		ldr	r3, .L69
 1110 0096 5B69     		ldr	r3, [r3, #20]
 1111 0098 0A4A     		ldr	r2, .L69
 1112 009a 43F40033 		orr	r3, r3, #131072
 1113 009e 5361     		str	r3, [r2, #20]
 698:Drivers/STM32L4xx_HAL_Driver/Src/stm32l4xx_hal_flash_ex.c **** 
 699:Drivers/STM32L4xx_HAL_Driver/Src/stm32l4xx_hal_flash_ex.c ****     /* Wait for last operation to be completed */
 700:Drivers/STM32L4xx_HAL_Driver/Src/stm32l4xx_hal_flash_ex.c ****     status = FLASH_WaitForLastOperation((uint32_t)FLASH_TIMEOUT_VALUE);
 1114              		.loc 1 700 14
 1115 00a0 4CF25030 		movw	r0, #50000
 1116 00a4 FFF7FEFF 		bl	FLASH_WaitForLastOperation
 1117 00a8 0346     		mov	r3, r0
 1118 00aa FB75     		strb	r3, [r7, #23]
 701:Drivers/STM32L4xx_HAL_Driver/Src/stm32l4xx_hal_flash_ex.c **** 
 702:Drivers/STM32L4xx_HAL_Driver/Src/stm32l4xx_hal_flash_ex.c ****     /* If the option byte program operation is completed, disable the OPTSTRT Bit */
 703:Drivers/STM32L4xx_HAL_Driver/Src/stm32l4xx_hal_flash_ex.c ****     CLEAR_BIT(FLASH->CR, FLASH_CR_OPTSTRT);
 1119              		.loc 1 703 5
 1120 00ac 054B     		ldr	r3, .L69
 1121 00ae 5B69     		ldr	r3, [r3, #20]
 1122 00b0 044A     		ldr	r2, .L69
 1123 00b2 23F40033 		bic	r3, r3, #131072
 1124 00b6 5361     		str	r3, [r2, #20]
 1125              	.L63:
 704:Drivers/STM32L4xx_HAL_Driver/Src/stm32l4xx_hal_flash_ex.c ****   }
 705:Drivers/STM32L4xx_HAL_Driver/Src/stm32l4xx_hal_flash_ex.c **** 
 706:Drivers/STM32L4xx_HAL_Driver/Src/stm32l4xx_hal_flash_ex.c ****   return status;
 1126              		.loc 1 706 10
 1127 00b8 FB7D     		ldrb	r3, [r7, #23]	@ zero_extendqisi2
ARM GAS  /tmp/ccZFOTRI.s 			page 33


 707:Drivers/STM32L4xx_HAL_Driver/Src/stm32l4xx_hal_flash_ex.c **** }
 1128              		.loc 1 707 1
 1129 00ba 1846     		mov	r0, r3
 1130 00bc 1837     		adds	r7, r7, #24
 1131              	.LCFI41:
 1132              		.cfi_def_cfa_offset 8
 1133 00be BD46     		mov	sp, r7
 1134              	.LCFI42:
 1135              		.cfi_def_cfa_register 13
 1136              		@ sp needed
 1137 00c0 80BD     		pop	{r7, pc}
 1138              	.L70:
 1139 00c2 00BF     		.align	2
 1140              	.L69:
 1141 00c4 00200240 		.word	1073881088
 1142              		.cfi_endproc
 1143              	.LFE137:
 1145              		.section	.text.FLASH_OB_RDPConfig,"ax",%progbits
 1146              		.align	1
 1147              		.syntax unified
 1148              		.thumb
 1149              		.thumb_func
 1150              		.fpu fpv4-sp-d16
 1152              	FLASH_OB_RDPConfig:
 1153              	.LFB138:
 708:Drivers/STM32L4xx_HAL_Driver/Src/stm32l4xx_hal_flash_ex.c **** 
 709:Drivers/STM32L4xx_HAL_Driver/Src/stm32l4xx_hal_flash_ex.c **** /**
 710:Drivers/STM32L4xx_HAL_Driver/Src/stm32l4xx_hal_flash_ex.c ****   * @brief  Set the read protection level.
 711:Drivers/STM32L4xx_HAL_Driver/Src/stm32l4xx_hal_flash_ex.c ****   *
 712:Drivers/STM32L4xx_HAL_Driver/Src/stm32l4xx_hal_flash_ex.c ****   * @note   To configure the RDP level, the option lock bit OPTLOCK must be
 713:Drivers/STM32L4xx_HAL_Driver/Src/stm32l4xx_hal_flash_ex.c ****   *         cleared with the call of the HAL_FLASH_OB_Unlock() function.
 714:Drivers/STM32L4xx_HAL_Driver/Src/stm32l4xx_hal_flash_ex.c ****   * @note   To validate the RDP level, the option bytes must be reloaded
 715:Drivers/STM32L4xx_HAL_Driver/Src/stm32l4xx_hal_flash_ex.c ****   *         through the call of the HAL_FLASH_OB_Launch() function.
 716:Drivers/STM32L4xx_HAL_Driver/Src/stm32l4xx_hal_flash_ex.c ****   * @note   !!! Warning : When enabling OB_RDP level 2 it's no more possible
 717:Drivers/STM32L4xx_HAL_Driver/Src/stm32l4xx_hal_flash_ex.c ****   *         to go back to level 1 or 0 !!!
 718:Drivers/STM32L4xx_HAL_Driver/Src/stm32l4xx_hal_flash_ex.c ****   *
 719:Drivers/STM32L4xx_HAL_Driver/Src/stm32l4xx_hal_flash_ex.c ****   * @param  RDPLevel: specifies the read protection level.
 720:Drivers/STM32L4xx_HAL_Driver/Src/stm32l4xx_hal_flash_ex.c ****   *         This parameter can be one of the following values:
 721:Drivers/STM32L4xx_HAL_Driver/Src/stm32l4xx_hal_flash_ex.c ****   *            @arg OB_RDP_LEVEL_0: No protection
 722:Drivers/STM32L4xx_HAL_Driver/Src/stm32l4xx_hal_flash_ex.c ****   *            @arg OB_RDP_LEVEL_1: Read protection of the memory
 723:Drivers/STM32L4xx_HAL_Driver/Src/stm32l4xx_hal_flash_ex.c ****   *            @arg OB_RDP_LEVEL_2: Full chip protection
 724:Drivers/STM32L4xx_HAL_Driver/Src/stm32l4xx_hal_flash_ex.c ****   *
 725:Drivers/STM32L4xx_HAL_Driver/Src/stm32l4xx_hal_flash_ex.c ****   * @retval HAL status
 726:Drivers/STM32L4xx_HAL_Driver/Src/stm32l4xx_hal_flash_ex.c ****   */
 727:Drivers/STM32L4xx_HAL_Driver/Src/stm32l4xx_hal_flash_ex.c **** static HAL_StatusTypeDef FLASH_OB_RDPConfig(uint32_t RDPLevel)
 728:Drivers/STM32L4xx_HAL_Driver/Src/stm32l4xx_hal_flash_ex.c **** {
 1154              		.loc 1 728 1
 1155              		.cfi_startproc
 1156              		@ args = 0, pretend = 0, frame = 16
 1157              		@ frame_needed = 1, uses_anonymous_args = 0
 1158 0000 80B5     		push	{r7, lr}
 1159              	.LCFI43:
 1160              		.cfi_def_cfa_offset 8
 1161              		.cfi_offset 7, -8
 1162              		.cfi_offset 14, -4
 1163 0002 84B0     		sub	sp, sp, #16
 1164              	.LCFI44:
ARM GAS  /tmp/ccZFOTRI.s 			page 34


 1165              		.cfi_def_cfa_offset 24
 1166 0004 00AF     		add	r7, sp, #0
 1167              	.LCFI45:
 1168              		.cfi_def_cfa_register 7
 1169 0006 7860     		str	r0, [r7, #4]
 729:Drivers/STM32L4xx_HAL_Driver/Src/stm32l4xx_hal_flash_ex.c ****   HAL_StatusTypeDef status;
 730:Drivers/STM32L4xx_HAL_Driver/Src/stm32l4xx_hal_flash_ex.c **** 
 731:Drivers/STM32L4xx_HAL_Driver/Src/stm32l4xx_hal_flash_ex.c ****   /* Check the parameters */
 732:Drivers/STM32L4xx_HAL_Driver/Src/stm32l4xx_hal_flash_ex.c ****   assert_param(IS_OB_RDP_LEVEL(RDPLevel));
 733:Drivers/STM32L4xx_HAL_Driver/Src/stm32l4xx_hal_flash_ex.c **** 
 734:Drivers/STM32L4xx_HAL_Driver/Src/stm32l4xx_hal_flash_ex.c ****   /* Wait for last operation to be completed */
 735:Drivers/STM32L4xx_HAL_Driver/Src/stm32l4xx_hal_flash_ex.c ****   status = FLASH_WaitForLastOperation((uint32_t)FLASH_TIMEOUT_VALUE);
 1170              		.loc 1 735 12
 1171 0008 4CF25030 		movw	r0, #50000
 1172 000c FFF7FEFF 		bl	FLASH_WaitForLastOperation
 1173 0010 0346     		mov	r3, r0
 1174 0012 FB73     		strb	r3, [r7, #15]
 736:Drivers/STM32L4xx_HAL_Driver/Src/stm32l4xx_hal_flash_ex.c **** 
 737:Drivers/STM32L4xx_HAL_Driver/Src/stm32l4xx_hal_flash_ex.c ****   if(status == HAL_OK)
 1175              		.loc 1 737 5
 1176 0014 FB7B     		ldrb	r3, [r7, #15]	@ zero_extendqisi2
 1177 0016 002B     		cmp	r3, #0
 1178 0018 19D1     		bne	.L72
 738:Drivers/STM32L4xx_HAL_Driver/Src/stm32l4xx_hal_flash_ex.c ****   {
 739:Drivers/STM32L4xx_HAL_Driver/Src/stm32l4xx_hal_flash_ex.c ****     /* Configure the RDP level in the option bytes register */
 740:Drivers/STM32L4xx_HAL_Driver/Src/stm32l4xx_hal_flash_ex.c ****     MODIFY_REG(FLASH->OPTR, FLASH_OPTR_RDP, RDPLevel);
 1179              		.loc 1 740 5
 1180 001a 0F4B     		ldr	r3, .L74
 1181 001c 1B6A     		ldr	r3, [r3, #32]
 1182 001e 23F0FF02 		bic	r2, r3, #255
 1183 0022 0D49     		ldr	r1, .L74
 1184 0024 7B68     		ldr	r3, [r7, #4]
 1185 0026 1343     		orrs	r3, r3, r2
 1186 0028 0B62     		str	r3, [r1, #32]
 741:Drivers/STM32L4xx_HAL_Driver/Src/stm32l4xx_hal_flash_ex.c **** 
 742:Drivers/STM32L4xx_HAL_Driver/Src/stm32l4xx_hal_flash_ex.c ****     /* Set OPTSTRT Bit */
 743:Drivers/STM32L4xx_HAL_Driver/Src/stm32l4xx_hal_flash_ex.c ****     SET_BIT(FLASH->CR, FLASH_CR_OPTSTRT);
 1187              		.loc 1 743 5
 1188 002a 0B4B     		ldr	r3, .L74
 1189 002c 5B69     		ldr	r3, [r3, #20]
 1190 002e 0A4A     		ldr	r2, .L74
 1191 0030 43F40033 		orr	r3, r3, #131072
 1192 0034 5361     		str	r3, [r2, #20]
 744:Drivers/STM32L4xx_HAL_Driver/Src/stm32l4xx_hal_flash_ex.c **** 
 745:Drivers/STM32L4xx_HAL_Driver/Src/stm32l4xx_hal_flash_ex.c ****     /* Wait for last operation to be completed */
 746:Drivers/STM32L4xx_HAL_Driver/Src/stm32l4xx_hal_flash_ex.c ****     status = FLASH_WaitForLastOperation((uint32_t)FLASH_TIMEOUT_VALUE);
 1193              		.loc 1 746 14
 1194 0036 4CF25030 		movw	r0, #50000
 1195 003a FFF7FEFF 		bl	FLASH_WaitForLastOperation
 1196 003e 0346     		mov	r3, r0
 1197 0040 FB73     		strb	r3, [r7, #15]
 747:Drivers/STM32L4xx_HAL_Driver/Src/stm32l4xx_hal_flash_ex.c **** 
 748:Drivers/STM32L4xx_HAL_Driver/Src/stm32l4xx_hal_flash_ex.c ****     /* If the option byte program operation is completed, disable the OPTSTRT Bit */
 749:Drivers/STM32L4xx_HAL_Driver/Src/stm32l4xx_hal_flash_ex.c ****     CLEAR_BIT(FLASH->CR, FLASH_CR_OPTSTRT);
 1198              		.loc 1 749 5
 1199 0042 054B     		ldr	r3, .L74
 1200 0044 5B69     		ldr	r3, [r3, #20]
ARM GAS  /tmp/ccZFOTRI.s 			page 35


 1201 0046 044A     		ldr	r2, .L74
 1202 0048 23F40033 		bic	r3, r3, #131072
 1203 004c 5361     		str	r3, [r2, #20]
 1204              	.L72:
 750:Drivers/STM32L4xx_HAL_Driver/Src/stm32l4xx_hal_flash_ex.c ****   }
 751:Drivers/STM32L4xx_HAL_Driver/Src/stm32l4xx_hal_flash_ex.c **** 
 752:Drivers/STM32L4xx_HAL_Driver/Src/stm32l4xx_hal_flash_ex.c ****   return status;
 1205              		.loc 1 752 10
 1206 004e FB7B     		ldrb	r3, [r7, #15]	@ zero_extendqisi2
 753:Drivers/STM32L4xx_HAL_Driver/Src/stm32l4xx_hal_flash_ex.c **** }
 1207              		.loc 1 753 1
 1208 0050 1846     		mov	r0, r3
 1209 0052 1037     		adds	r7, r7, #16
 1210              	.LCFI46:
 1211              		.cfi_def_cfa_offset 8
 1212 0054 BD46     		mov	sp, r7
 1213              	.LCFI47:
 1214              		.cfi_def_cfa_register 13
 1215              		@ sp needed
 1216 0056 80BD     		pop	{r7, pc}
 1217              	.L75:
 1218              		.align	2
 1219              	.L74:
 1220 0058 00200240 		.word	1073881088
 1221              		.cfi_endproc
 1222              	.LFE138:
 1224              		.section	.text.FLASH_OB_UserConfig,"ax",%progbits
 1225              		.align	1
 1226              		.syntax unified
 1227              		.thumb
 1228              		.thumb_func
 1229              		.fpu fpv4-sp-d16
 1231              	FLASH_OB_UserConfig:
 1232              	.LFB139:
 754:Drivers/STM32L4xx_HAL_Driver/Src/stm32l4xx_hal_flash_ex.c **** 
 755:Drivers/STM32L4xx_HAL_Driver/Src/stm32l4xx_hal_flash_ex.c **** /**
 756:Drivers/STM32L4xx_HAL_Driver/Src/stm32l4xx_hal_flash_ex.c ****   * @brief  Program the FLASH User Option Byte.
 757:Drivers/STM32L4xx_HAL_Driver/Src/stm32l4xx_hal_flash_ex.c ****   *
 758:Drivers/STM32L4xx_HAL_Driver/Src/stm32l4xx_hal_flash_ex.c ****   * @note   To configure the user option bytes, the option lock bit OPTLOCK must
 759:Drivers/STM32L4xx_HAL_Driver/Src/stm32l4xx_hal_flash_ex.c ****   *         be cleared with the call of the HAL_FLASH_OB_Unlock() function.
 760:Drivers/STM32L4xx_HAL_Driver/Src/stm32l4xx_hal_flash_ex.c ****   * @note   To validate the user option bytes, the option bytes must be reloaded
 761:Drivers/STM32L4xx_HAL_Driver/Src/stm32l4xx_hal_flash_ex.c ****   *         through the call of the HAL_FLASH_OB_Launch() function.
 762:Drivers/STM32L4xx_HAL_Driver/Src/stm32l4xx_hal_flash_ex.c ****   *
 763:Drivers/STM32L4xx_HAL_Driver/Src/stm32l4xx_hal_flash_ex.c ****   * @param  UserType: The FLASH User Option Bytes to be modified
 764:Drivers/STM32L4xx_HAL_Driver/Src/stm32l4xx_hal_flash_ex.c ****   * @param  UserConfig: The FLASH User Option Bytes values:
 765:Drivers/STM32L4xx_HAL_Driver/Src/stm32l4xx_hal_flash_ex.c ****   *         BOR_LEV(Bit8-10), nRST_STOP(Bit12), nRST_STDBY(Bit13), IWDG_SW(Bit16),
 766:Drivers/STM32L4xx_HAL_Driver/Src/stm32l4xx_hal_flash_ex.c ****   *         IWDG_STOP(Bit17), IWDG_STDBY(Bit18), WWDG_SW(Bit19), BFB2(Bit20),
 767:Drivers/STM32L4xx_HAL_Driver/Src/stm32l4xx_hal_flash_ex.c ****   *         DUALBANK(Bit21), nBOOT1(Bit23), SRAM2_PE(Bit24) and SRAM2_RST(Bit25).
 768:Drivers/STM32L4xx_HAL_Driver/Src/stm32l4xx_hal_flash_ex.c ****   *
 769:Drivers/STM32L4xx_HAL_Driver/Src/stm32l4xx_hal_flash_ex.c ****   * @retval HAL status
 770:Drivers/STM32L4xx_HAL_Driver/Src/stm32l4xx_hal_flash_ex.c ****   */
 771:Drivers/STM32L4xx_HAL_Driver/Src/stm32l4xx_hal_flash_ex.c **** static HAL_StatusTypeDef FLASH_OB_UserConfig(uint32_t UserType, uint32_t UserConfig)
 772:Drivers/STM32L4xx_HAL_Driver/Src/stm32l4xx_hal_flash_ex.c **** {
 1233              		.loc 1 772 1
 1234              		.cfi_startproc
 1235              		@ args = 0, pretend = 0, frame = 24
 1236              		@ frame_needed = 1, uses_anonymous_args = 0
ARM GAS  /tmp/ccZFOTRI.s 			page 36


 1237 0000 80B5     		push	{r7, lr}
 1238              	.LCFI48:
 1239              		.cfi_def_cfa_offset 8
 1240              		.cfi_offset 7, -8
 1241              		.cfi_offset 14, -4
 1242 0002 86B0     		sub	sp, sp, #24
 1243              	.LCFI49:
 1244              		.cfi_def_cfa_offset 32
 1245 0004 00AF     		add	r7, sp, #0
 1246              	.LCFI50:
 1247              		.cfi_def_cfa_register 7
 1248 0006 7860     		str	r0, [r7, #4]
 1249 0008 3960     		str	r1, [r7]
 773:Drivers/STM32L4xx_HAL_Driver/Src/stm32l4xx_hal_flash_ex.c ****   uint32_t optr_reg_val = 0;
 1250              		.loc 1 773 12
 1251 000a 0023     		movs	r3, #0
 1252 000c 7B61     		str	r3, [r7, #20]
 774:Drivers/STM32L4xx_HAL_Driver/Src/stm32l4xx_hal_flash_ex.c ****   uint32_t optr_reg_mask = 0;
 1253              		.loc 1 774 12
 1254 000e 0023     		movs	r3, #0
 1255 0010 3B61     		str	r3, [r7, #16]
 775:Drivers/STM32L4xx_HAL_Driver/Src/stm32l4xx_hal_flash_ex.c ****   HAL_StatusTypeDef status;
 776:Drivers/STM32L4xx_HAL_Driver/Src/stm32l4xx_hal_flash_ex.c **** 
 777:Drivers/STM32L4xx_HAL_Driver/Src/stm32l4xx_hal_flash_ex.c ****   /* Check the parameters */
 778:Drivers/STM32L4xx_HAL_Driver/Src/stm32l4xx_hal_flash_ex.c ****   assert_param(IS_OB_USER_TYPE(UserType));
 779:Drivers/STM32L4xx_HAL_Driver/Src/stm32l4xx_hal_flash_ex.c **** 
 780:Drivers/STM32L4xx_HAL_Driver/Src/stm32l4xx_hal_flash_ex.c ****   /* Wait for last operation to be completed */
 781:Drivers/STM32L4xx_HAL_Driver/Src/stm32l4xx_hal_flash_ex.c ****   status = FLASH_WaitForLastOperation((uint32_t)FLASH_TIMEOUT_VALUE);
 1256              		.loc 1 781 12
 1257 0012 4CF25030 		movw	r0, #50000
 1258 0016 FFF7FEFF 		bl	FLASH_WaitForLastOperation
 1259 001a 0346     		mov	r3, r0
 1260 001c FB73     		strb	r3, [r7, #15]
 782:Drivers/STM32L4xx_HAL_Driver/Src/stm32l4xx_hal_flash_ex.c **** 
 783:Drivers/STM32L4xx_HAL_Driver/Src/stm32l4xx_hal_flash_ex.c ****   if(status == HAL_OK)
 1261              		.loc 1 783 5
 1262 001e FB7B     		ldrb	r3, [r7, #15]	@ zero_extendqisi2
 1263 0020 002B     		cmp	r3, #0
 1264 0022 40F0FC80 		bne	.L77
 784:Drivers/STM32L4xx_HAL_Driver/Src/stm32l4xx_hal_flash_ex.c ****   {
 785:Drivers/STM32L4xx_HAL_Driver/Src/stm32l4xx_hal_flash_ex.c ****     if((UserType & OB_USER_BOR_LEV) != 0U)
 1265              		.loc 1 785 18
 1266 0026 7B68     		ldr	r3, [r7, #4]
 1267 0028 03F00103 		and	r3, r3, #1
 1268              		.loc 1 785 7
 1269 002c 002B     		cmp	r3, #0
 1270 002e 09D0     		beq	.L78
 786:Drivers/STM32L4xx_HAL_Driver/Src/stm32l4xx_hal_flash_ex.c ****     {
 787:Drivers/STM32L4xx_HAL_Driver/Src/stm32l4xx_hal_flash_ex.c ****       /* BOR level option byte should be modified */
 788:Drivers/STM32L4xx_HAL_Driver/Src/stm32l4xx_hal_flash_ex.c ****       assert_param(IS_OB_USER_BOR_LEVEL(UserConfig & FLASH_OPTR_BOR_LEV));
 789:Drivers/STM32L4xx_HAL_Driver/Src/stm32l4xx_hal_flash_ex.c **** 
 790:Drivers/STM32L4xx_HAL_Driver/Src/stm32l4xx_hal_flash_ex.c ****       /* Set value and mask for BOR level option byte */
 791:Drivers/STM32L4xx_HAL_Driver/Src/stm32l4xx_hal_flash_ex.c ****       optr_reg_val |= (UserConfig & FLASH_OPTR_BOR_LEV);
 1271              		.loc 1 791 35
 1272 0030 3B68     		ldr	r3, [r7]
 1273 0032 03F4E063 		and	r3, r3, #1792
 1274              		.loc 1 791 20
ARM GAS  /tmp/ccZFOTRI.s 			page 37


 1275 0036 7A69     		ldr	r2, [r7, #20]
 1276 0038 1343     		orrs	r3, r3, r2
 1277 003a 7B61     		str	r3, [r7, #20]
 792:Drivers/STM32L4xx_HAL_Driver/Src/stm32l4xx_hal_flash_ex.c ****       optr_reg_mask |= FLASH_OPTR_BOR_LEV;
 1278              		.loc 1 792 21
 1279 003c 3B69     		ldr	r3, [r7, #16]
 1280 003e 43F4E063 		orr	r3, r3, #1792
 1281 0042 3B61     		str	r3, [r7, #16]
 1282              	.L78:
 793:Drivers/STM32L4xx_HAL_Driver/Src/stm32l4xx_hal_flash_ex.c ****     }
 794:Drivers/STM32L4xx_HAL_Driver/Src/stm32l4xx_hal_flash_ex.c **** 
 795:Drivers/STM32L4xx_HAL_Driver/Src/stm32l4xx_hal_flash_ex.c ****     if((UserType & OB_USER_nRST_STOP) != 0U)
 1283              		.loc 1 795 18
 1284 0044 7B68     		ldr	r3, [r7, #4]
 1285 0046 03F00203 		and	r3, r3, #2
 1286              		.loc 1 795 7
 1287 004a 002B     		cmp	r3, #0
 1288 004c 09D0     		beq	.L79
 796:Drivers/STM32L4xx_HAL_Driver/Src/stm32l4xx_hal_flash_ex.c ****     {
 797:Drivers/STM32L4xx_HAL_Driver/Src/stm32l4xx_hal_flash_ex.c ****       /* nRST_STOP option byte should be modified */
 798:Drivers/STM32L4xx_HAL_Driver/Src/stm32l4xx_hal_flash_ex.c ****       assert_param(IS_OB_USER_STOP(UserConfig & FLASH_OPTR_nRST_STOP));
 799:Drivers/STM32L4xx_HAL_Driver/Src/stm32l4xx_hal_flash_ex.c **** 
 800:Drivers/STM32L4xx_HAL_Driver/Src/stm32l4xx_hal_flash_ex.c ****       /* Set value and mask for nRST_STOP option byte */
 801:Drivers/STM32L4xx_HAL_Driver/Src/stm32l4xx_hal_flash_ex.c ****       optr_reg_val |= (UserConfig & FLASH_OPTR_nRST_STOP);
 1289              		.loc 1 801 35
 1290 004e 3B68     		ldr	r3, [r7]
 1291 0050 03F48053 		and	r3, r3, #4096
 1292              		.loc 1 801 20
 1293 0054 7A69     		ldr	r2, [r7, #20]
 1294 0056 1343     		orrs	r3, r3, r2
 1295 0058 7B61     		str	r3, [r7, #20]
 802:Drivers/STM32L4xx_HAL_Driver/Src/stm32l4xx_hal_flash_ex.c ****       optr_reg_mask |= FLASH_OPTR_nRST_STOP;
 1296              		.loc 1 802 21
 1297 005a 3B69     		ldr	r3, [r7, #16]
 1298 005c 43F48053 		orr	r3, r3, #4096
 1299 0060 3B61     		str	r3, [r7, #16]
 1300              	.L79:
 803:Drivers/STM32L4xx_HAL_Driver/Src/stm32l4xx_hal_flash_ex.c ****     }
 804:Drivers/STM32L4xx_HAL_Driver/Src/stm32l4xx_hal_flash_ex.c **** 
 805:Drivers/STM32L4xx_HAL_Driver/Src/stm32l4xx_hal_flash_ex.c ****     if((UserType & OB_USER_nRST_STDBY) != 0U)
 1301              		.loc 1 805 18
 1302 0062 7B68     		ldr	r3, [r7, #4]
 1303 0064 03F00403 		and	r3, r3, #4
 1304              		.loc 1 805 7
 1305 0068 002B     		cmp	r3, #0
 1306 006a 09D0     		beq	.L80
 806:Drivers/STM32L4xx_HAL_Driver/Src/stm32l4xx_hal_flash_ex.c ****     {
 807:Drivers/STM32L4xx_HAL_Driver/Src/stm32l4xx_hal_flash_ex.c ****       /* nRST_STDBY option byte should be modified */
 808:Drivers/STM32L4xx_HAL_Driver/Src/stm32l4xx_hal_flash_ex.c ****       assert_param(IS_OB_USER_STANDBY(UserConfig & FLASH_OPTR_nRST_STDBY));
 809:Drivers/STM32L4xx_HAL_Driver/Src/stm32l4xx_hal_flash_ex.c **** 
 810:Drivers/STM32L4xx_HAL_Driver/Src/stm32l4xx_hal_flash_ex.c ****       /* Set value and mask for nRST_STDBY option byte */
 811:Drivers/STM32L4xx_HAL_Driver/Src/stm32l4xx_hal_flash_ex.c ****       optr_reg_val |= (UserConfig & FLASH_OPTR_nRST_STDBY);
 1307              		.loc 1 811 35
 1308 006c 3B68     		ldr	r3, [r7]
 1309 006e 03F40053 		and	r3, r3, #8192
 1310              		.loc 1 811 20
 1311 0072 7A69     		ldr	r2, [r7, #20]
ARM GAS  /tmp/ccZFOTRI.s 			page 38


 1312 0074 1343     		orrs	r3, r3, r2
 1313 0076 7B61     		str	r3, [r7, #20]
 812:Drivers/STM32L4xx_HAL_Driver/Src/stm32l4xx_hal_flash_ex.c ****       optr_reg_mask |= FLASH_OPTR_nRST_STDBY;
 1314              		.loc 1 812 21
 1315 0078 3B69     		ldr	r3, [r7, #16]
 1316 007a 43F40053 		orr	r3, r3, #8192
 1317 007e 3B61     		str	r3, [r7, #16]
 1318              	.L80:
 813:Drivers/STM32L4xx_HAL_Driver/Src/stm32l4xx_hal_flash_ex.c ****     }
 814:Drivers/STM32L4xx_HAL_Driver/Src/stm32l4xx_hal_flash_ex.c **** 
 815:Drivers/STM32L4xx_HAL_Driver/Src/stm32l4xx_hal_flash_ex.c ****     if((UserType & OB_USER_nRST_SHDW) != 0U)
 1319              		.loc 1 815 18
 1320 0080 7B68     		ldr	r3, [r7, #4]
 1321 0082 03F48053 		and	r3, r3, #4096
 1322              		.loc 1 815 7
 1323 0086 002B     		cmp	r3, #0
 1324 0088 09D0     		beq	.L81
 816:Drivers/STM32L4xx_HAL_Driver/Src/stm32l4xx_hal_flash_ex.c ****     {
 817:Drivers/STM32L4xx_HAL_Driver/Src/stm32l4xx_hal_flash_ex.c ****       /* nRST_SHDW option byte should be modified */
 818:Drivers/STM32L4xx_HAL_Driver/Src/stm32l4xx_hal_flash_ex.c ****       assert_param(IS_OB_USER_SHUTDOWN(UserConfig & FLASH_OPTR_nRST_SHDW));
 819:Drivers/STM32L4xx_HAL_Driver/Src/stm32l4xx_hal_flash_ex.c **** 
 820:Drivers/STM32L4xx_HAL_Driver/Src/stm32l4xx_hal_flash_ex.c ****       /* Set value and mask for nRST_SHDW option byte */
 821:Drivers/STM32L4xx_HAL_Driver/Src/stm32l4xx_hal_flash_ex.c ****       optr_reg_val |= (UserConfig & FLASH_OPTR_nRST_SHDW);
 1325              		.loc 1 821 35
 1326 008a 3B68     		ldr	r3, [r7]
 1327 008c 03F48043 		and	r3, r3, #16384
 1328              		.loc 1 821 20
 1329 0090 7A69     		ldr	r2, [r7, #20]
 1330 0092 1343     		orrs	r3, r3, r2
 1331 0094 7B61     		str	r3, [r7, #20]
 822:Drivers/STM32L4xx_HAL_Driver/Src/stm32l4xx_hal_flash_ex.c ****       optr_reg_mask |= FLASH_OPTR_nRST_SHDW;
 1332              		.loc 1 822 21
 1333 0096 3B69     		ldr	r3, [r7, #16]
 1334 0098 43F48043 		orr	r3, r3, #16384
 1335 009c 3B61     		str	r3, [r7, #16]
 1336              	.L81:
 823:Drivers/STM32L4xx_HAL_Driver/Src/stm32l4xx_hal_flash_ex.c ****     }
 824:Drivers/STM32L4xx_HAL_Driver/Src/stm32l4xx_hal_flash_ex.c **** 
 825:Drivers/STM32L4xx_HAL_Driver/Src/stm32l4xx_hal_flash_ex.c ****     if((UserType & OB_USER_IWDG_SW) != 0U)
 1337              		.loc 1 825 18
 1338 009e 7B68     		ldr	r3, [r7, #4]
 1339 00a0 03F00803 		and	r3, r3, #8
 1340              		.loc 1 825 7
 1341 00a4 002B     		cmp	r3, #0
 1342 00a6 09D0     		beq	.L82
 826:Drivers/STM32L4xx_HAL_Driver/Src/stm32l4xx_hal_flash_ex.c ****     {
 827:Drivers/STM32L4xx_HAL_Driver/Src/stm32l4xx_hal_flash_ex.c ****       /* IWDG_SW option byte should be modified */
 828:Drivers/STM32L4xx_HAL_Driver/Src/stm32l4xx_hal_flash_ex.c ****       assert_param(IS_OB_USER_IWDG(UserConfig & FLASH_OPTR_IWDG_SW));
 829:Drivers/STM32L4xx_HAL_Driver/Src/stm32l4xx_hal_flash_ex.c **** 
 830:Drivers/STM32L4xx_HAL_Driver/Src/stm32l4xx_hal_flash_ex.c ****       /* Set value and mask for IWDG_SW option byte */
 831:Drivers/STM32L4xx_HAL_Driver/Src/stm32l4xx_hal_flash_ex.c ****       optr_reg_val |= (UserConfig & FLASH_OPTR_IWDG_SW);
 1343              		.loc 1 831 35
 1344 00a8 3B68     		ldr	r3, [r7]
 1345 00aa 03F48033 		and	r3, r3, #65536
 1346              		.loc 1 831 20
 1347 00ae 7A69     		ldr	r2, [r7, #20]
 1348 00b0 1343     		orrs	r3, r3, r2
ARM GAS  /tmp/ccZFOTRI.s 			page 39


 1349 00b2 7B61     		str	r3, [r7, #20]
 832:Drivers/STM32L4xx_HAL_Driver/Src/stm32l4xx_hal_flash_ex.c ****       optr_reg_mask |= FLASH_OPTR_IWDG_SW;
 1350              		.loc 1 832 21
 1351 00b4 3B69     		ldr	r3, [r7, #16]
 1352 00b6 43F48033 		orr	r3, r3, #65536
 1353 00ba 3B61     		str	r3, [r7, #16]
 1354              	.L82:
 833:Drivers/STM32L4xx_HAL_Driver/Src/stm32l4xx_hal_flash_ex.c ****     }
 834:Drivers/STM32L4xx_HAL_Driver/Src/stm32l4xx_hal_flash_ex.c **** 
 835:Drivers/STM32L4xx_HAL_Driver/Src/stm32l4xx_hal_flash_ex.c ****     if((UserType & OB_USER_IWDG_STOP) != 0U)
 1355              		.loc 1 835 18
 1356 00bc 7B68     		ldr	r3, [r7, #4]
 1357 00be 03F01003 		and	r3, r3, #16
 1358              		.loc 1 835 7
 1359 00c2 002B     		cmp	r3, #0
 1360 00c4 09D0     		beq	.L83
 836:Drivers/STM32L4xx_HAL_Driver/Src/stm32l4xx_hal_flash_ex.c ****     {
 837:Drivers/STM32L4xx_HAL_Driver/Src/stm32l4xx_hal_flash_ex.c ****       /* IWDG_STOP option byte should be modified */
 838:Drivers/STM32L4xx_HAL_Driver/Src/stm32l4xx_hal_flash_ex.c ****       assert_param(IS_OB_USER_IWDG_STOP(UserConfig & FLASH_OPTR_IWDG_STOP));
 839:Drivers/STM32L4xx_HAL_Driver/Src/stm32l4xx_hal_flash_ex.c **** 
 840:Drivers/STM32L4xx_HAL_Driver/Src/stm32l4xx_hal_flash_ex.c ****       /* Set value and mask for IWDG_STOP option byte */
 841:Drivers/STM32L4xx_HAL_Driver/Src/stm32l4xx_hal_flash_ex.c ****       optr_reg_val |= (UserConfig & FLASH_OPTR_IWDG_STOP);
 1361              		.loc 1 841 35
 1362 00c6 3B68     		ldr	r3, [r7]
 1363 00c8 03F40033 		and	r3, r3, #131072
 1364              		.loc 1 841 20
 1365 00cc 7A69     		ldr	r2, [r7, #20]
 1366 00ce 1343     		orrs	r3, r3, r2
 1367 00d0 7B61     		str	r3, [r7, #20]
 842:Drivers/STM32L4xx_HAL_Driver/Src/stm32l4xx_hal_flash_ex.c ****       optr_reg_mask |= FLASH_OPTR_IWDG_STOP;
 1368              		.loc 1 842 21
 1369 00d2 3B69     		ldr	r3, [r7, #16]
 1370 00d4 43F40033 		orr	r3, r3, #131072
 1371 00d8 3B61     		str	r3, [r7, #16]
 1372              	.L83:
 843:Drivers/STM32L4xx_HAL_Driver/Src/stm32l4xx_hal_flash_ex.c ****     }
 844:Drivers/STM32L4xx_HAL_Driver/Src/stm32l4xx_hal_flash_ex.c **** 
 845:Drivers/STM32L4xx_HAL_Driver/Src/stm32l4xx_hal_flash_ex.c ****     if((UserType & OB_USER_IWDG_STDBY) != 0U)
 1373              		.loc 1 845 18
 1374 00da 7B68     		ldr	r3, [r7, #4]
 1375 00dc 03F02003 		and	r3, r3, #32
 1376              		.loc 1 845 7
 1377 00e0 002B     		cmp	r3, #0
 1378 00e2 09D0     		beq	.L84
 846:Drivers/STM32L4xx_HAL_Driver/Src/stm32l4xx_hal_flash_ex.c ****     {
 847:Drivers/STM32L4xx_HAL_Driver/Src/stm32l4xx_hal_flash_ex.c ****       /* IWDG_STDBY option byte should be modified */
 848:Drivers/STM32L4xx_HAL_Driver/Src/stm32l4xx_hal_flash_ex.c ****       assert_param(IS_OB_USER_IWDG_STDBY(UserConfig & FLASH_OPTR_IWDG_STDBY));
 849:Drivers/STM32L4xx_HAL_Driver/Src/stm32l4xx_hal_flash_ex.c **** 
 850:Drivers/STM32L4xx_HAL_Driver/Src/stm32l4xx_hal_flash_ex.c ****       /* Set value and mask for IWDG_STDBY option byte */
 851:Drivers/STM32L4xx_HAL_Driver/Src/stm32l4xx_hal_flash_ex.c ****       optr_reg_val |= (UserConfig & FLASH_OPTR_IWDG_STDBY);
 1379              		.loc 1 851 35
 1380 00e4 3B68     		ldr	r3, [r7]
 1381 00e6 03F48023 		and	r3, r3, #262144
 1382              		.loc 1 851 20
 1383 00ea 7A69     		ldr	r2, [r7, #20]
 1384 00ec 1343     		orrs	r3, r3, r2
 1385 00ee 7B61     		str	r3, [r7, #20]
ARM GAS  /tmp/ccZFOTRI.s 			page 40


 852:Drivers/STM32L4xx_HAL_Driver/Src/stm32l4xx_hal_flash_ex.c ****       optr_reg_mask |= FLASH_OPTR_IWDG_STDBY;
 1386              		.loc 1 852 21
 1387 00f0 3B69     		ldr	r3, [r7, #16]
 1388 00f2 43F48023 		orr	r3, r3, #262144
 1389 00f6 3B61     		str	r3, [r7, #16]
 1390              	.L84:
 853:Drivers/STM32L4xx_HAL_Driver/Src/stm32l4xx_hal_flash_ex.c ****     }
 854:Drivers/STM32L4xx_HAL_Driver/Src/stm32l4xx_hal_flash_ex.c **** 
 855:Drivers/STM32L4xx_HAL_Driver/Src/stm32l4xx_hal_flash_ex.c ****     if((UserType & OB_USER_WWDG_SW) != 0U)
 1391              		.loc 1 855 18
 1392 00f8 7B68     		ldr	r3, [r7, #4]
 1393 00fa 03F04003 		and	r3, r3, #64
 1394              		.loc 1 855 7
 1395 00fe 002B     		cmp	r3, #0
 1396 0100 09D0     		beq	.L85
 856:Drivers/STM32L4xx_HAL_Driver/Src/stm32l4xx_hal_flash_ex.c ****     {
 857:Drivers/STM32L4xx_HAL_Driver/Src/stm32l4xx_hal_flash_ex.c ****       /* WWDG_SW option byte should be modified */
 858:Drivers/STM32L4xx_HAL_Driver/Src/stm32l4xx_hal_flash_ex.c ****       assert_param(IS_OB_USER_WWDG(UserConfig & FLASH_OPTR_WWDG_SW));
 859:Drivers/STM32L4xx_HAL_Driver/Src/stm32l4xx_hal_flash_ex.c **** 
 860:Drivers/STM32L4xx_HAL_Driver/Src/stm32l4xx_hal_flash_ex.c ****       /* Set value and mask for WWDG_SW option byte */
 861:Drivers/STM32L4xx_HAL_Driver/Src/stm32l4xx_hal_flash_ex.c ****       optr_reg_val |= (UserConfig & FLASH_OPTR_WWDG_SW);
 1397              		.loc 1 861 35
 1398 0102 3B68     		ldr	r3, [r7]
 1399 0104 03F40023 		and	r3, r3, #524288
 1400              		.loc 1 861 20
 1401 0108 7A69     		ldr	r2, [r7, #20]
 1402 010a 1343     		orrs	r3, r3, r2
 1403 010c 7B61     		str	r3, [r7, #20]
 862:Drivers/STM32L4xx_HAL_Driver/Src/stm32l4xx_hal_flash_ex.c ****       optr_reg_mask |= FLASH_OPTR_WWDG_SW;
 1404              		.loc 1 862 21
 1405 010e 3B69     		ldr	r3, [r7, #16]
 1406 0110 43F40023 		orr	r3, r3, #524288
 1407 0114 3B61     		str	r3, [r7, #16]
 1408              	.L85:
 863:Drivers/STM32L4xx_HAL_Driver/Src/stm32l4xx_hal_flash_ex.c ****     }
 864:Drivers/STM32L4xx_HAL_Driver/Src/stm32l4xx_hal_flash_ex.c **** 
 865:Drivers/STM32L4xx_HAL_Driver/Src/stm32l4xx_hal_flash_ex.c **** #if defined (STM32L471xx) || defined (STM32L475xx) || defined (STM32L476xx) || defined (STM32L485xx
 866:Drivers/STM32L4xx_HAL_Driver/Src/stm32l4xx_hal_flash_ex.c ****     defined (STM32L496xx) || defined (STM32L4A6xx) || \
 867:Drivers/STM32L4xx_HAL_Driver/Src/stm32l4xx_hal_flash_ex.c ****     defined (STM32L4R5xx) || defined (STM32L4R7xx) || defined (STM32L4R9xx) || defined (STM32L4S5xx
 868:Drivers/STM32L4xx_HAL_Driver/Src/stm32l4xx_hal_flash_ex.c ****     if((UserType & OB_USER_BFB2) != 0U)
 1409              		.loc 1 868 18
 1410 0116 7B68     		ldr	r3, [r7, #4]
 1411 0118 03F08003 		and	r3, r3, #128
 1412              		.loc 1 868 7
 1413 011c 002B     		cmp	r3, #0
 1414 011e 09D0     		beq	.L86
 869:Drivers/STM32L4xx_HAL_Driver/Src/stm32l4xx_hal_flash_ex.c ****     {
 870:Drivers/STM32L4xx_HAL_Driver/Src/stm32l4xx_hal_flash_ex.c ****       /* BFB2 option byte should be modified */
 871:Drivers/STM32L4xx_HAL_Driver/Src/stm32l4xx_hal_flash_ex.c ****       assert_param(IS_OB_USER_BFB2(UserConfig & FLASH_OPTR_BFB2));
 872:Drivers/STM32L4xx_HAL_Driver/Src/stm32l4xx_hal_flash_ex.c **** 
 873:Drivers/STM32L4xx_HAL_Driver/Src/stm32l4xx_hal_flash_ex.c ****       /* Set value and mask for BFB2 option byte */
 874:Drivers/STM32L4xx_HAL_Driver/Src/stm32l4xx_hal_flash_ex.c ****       optr_reg_val |= (UserConfig & FLASH_OPTR_BFB2);
 1415              		.loc 1 874 35
 1416 0120 3B68     		ldr	r3, [r7]
 1417 0122 03F48013 		and	r3, r3, #1048576
 1418              		.loc 1 874 20
 1419 0126 7A69     		ldr	r2, [r7, #20]
ARM GAS  /tmp/ccZFOTRI.s 			page 41


 1420 0128 1343     		orrs	r3, r3, r2
 1421 012a 7B61     		str	r3, [r7, #20]
 875:Drivers/STM32L4xx_HAL_Driver/Src/stm32l4xx_hal_flash_ex.c ****       optr_reg_mask |= FLASH_OPTR_BFB2;
 1422              		.loc 1 875 21
 1423 012c 3B69     		ldr	r3, [r7, #16]
 1424 012e 43F48013 		orr	r3, r3, #1048576
 1425 0132 3B61     		str	r3, [r7, #16]
 1426              	.L86:
 876:Drivers/STM32L4xx_HAL_Driver/Src/stm32l4xx_hal_flash_ex.c ****     }
 877:Drivers/STM32L4xx_HAL_Driver/Src/stm32l4xx_hal_flash_ex.c **** 
 878:Drivers/STM32L4xx_HAL_Driver/Src/stm32l4xx_hal_flash_ex.c ****     if((UserType & OB_USER_DUALBANK) != 0U)
 1427              		.loc 1 878 18
 1428 0134 7B68     		ldr	r3, [r7, #4]
 1429 0136 03F48073 		and	r3, r3, #256
 1430              		.loc 1 878 7
 1431 013a 002B     		cmp	r3, #0
 1432 013c 09D0     		beq	.L87
 879:Drivers/STM32L4xx_HAL_Driver/Src/stm32l4xx_hal_flash_ex.c ****     {
 880:Drivers/STM32L4xx_HAL_Driver/Src/stm32l4xx_hal_flash_ex.c **** #if defined (STM32L4R5xx) || defined (STM32L4R7xx) || defined (STM32L4R9xx) || defined (STM32L4S5xx
 881:Drivers/STM32L4xx_HAL_Driver/Src/stm32l4xx_hal_flash_ex.c ****       /* DUALBANK option byte should be modified */
 882:Drivers/STM32L4xx_HAL_Driver/Src/stm32l4xx_hal_flash_ex.c ****       assert_param(IS_OB_USER_DUALBANK(UserConfig & FLASH_OPTR_DB1M));
 883:Drivers/STM32L4xx_HAL_Driver/Src/stm32l4xx_hal_flash_ex.c **** 
 884:Drivers/STM32L4xx_HAL_Driver/Src/stm32l4xx_hal_flash_ex.c ****       /* Set value and mask for DUALBANK option byte */
 885:Drivers/STM32L4xx_HAL_Driver/Src/stm32l4xx_hal_flash_ex.c ****       optr_reg_val |= (UserConfig & FLASH_OPTR_DB1M);
 886:Drivers/STM32L4xx_HAL_Driver/Src/stm32l4xx_hal_flash_ex.c ****       optr_reg_mask |= FLASH_OPTR_DB1M;
 887:Drivers/STM32L4xx_HAL_Driver/Src/stm32l4xx_hal_flash_ex.c **** #else
 888:Drivers/STM32L4xx_HAL_Driver/Src/stm32l4xx_hal_flash_ex.c ****       /* DUALBANK option byte should be modified */
 889:Drivers/STM32L4xx_HAL_Driver/Src/stm32l4xx_hal_flash_ex.c ****       assert_param(IS_OB_USER_DUALBANK(UserConfig & FLASH_OPTR_DUALBANK));
 890:Drivers/STM32L4xx_HAL_Driver/Src/stm32l4xx_hal_flash_ex.c **** 
 891:Drivers/STM32L4xx_HAL_Driver/Src/stm32l4xx_hal_flash_ex.c ****       /* Set value and mask for DUALBANK option byte */
 892:Drivers/STM32L4xx_HAL_Driver/Src/stm32l4xx_hal_flash_ex.c ****       optr_reg_val |= (UserConfig & FLASH_OPTR_DUALBANK);
 1433              		.loc 1 892 35
 1434 013e 3B68     		ldr	r3, [r7]
 1435 0140 03F40013 		and	r3, r3, #2097152
 1436              		.loc 1 892 20
 1437 0144 7A69     		ldr	r2, [r7, #20]
 1438 0146 1343     		orrs	r3, r3, r2
 1439 0148 7B61     		str	r3, [r7, #20]
 893:Drivers/STM32L4xx_HAL_Driver/Src/stm32l4xx_hal_flash_ex.c ****       optr_reg_mask |= FLASH_OPTR_DUALBANK;
 1440              		.loc 1 893 21
 1441 014a 3B69     		ldr	r3, [r7, #16]
 1442 014c 43F40013 		orr	r3, r3, #2097152
 1443 0150 3B61     		str	r3, [r7, #16]
 1444              	.L87:
 894:Drivers/STM32L4xx_HAL_Driver/Src/stm32l4xx_hal_flash_ex.c **** #endif
 895:Drivers/STM32L4xx_HAL_Driver/Src/stm32l4xx_hal_flash_ex.c ****     }
 896:Drivers/STM32L4xx_HAL_Driver/Src/stm32l4xx_hal_flash_ex.c **** #endif
 897:Drivers/STM32L4xx_HAL_Driver/Src/stm32l4xx_hal_flash_ex.c **** 
 898:Drivers/STM32L4xx_HAL_Driver/Src/stm32l4xx_hal_flash_ex.c ****     if((UserType & OB_USER_nBOOT1) != 0U)
 1445              		.loc 1 898 18
 1446 0152 7B68     		ldr	r3, [r7, #4]
 1447 0154 03F40073 		and	r3, r3, #512
 1448              		.loc 1 898 7
 1449 0158 002B     		cmp	r3, #0
 1450 015a 09D0     		beq	.L88
 899:Drivers/STM32L4xx_HAL_Driver/Src/stm32l4xx_hal_flash_ex.c ****     {
 900:Drivers/STM32L4xx_HAL_Driver/Src/stm32l4xx_hal_flash_ex.c ****       /* nBOOT1 option byte should be modified */
ARM GAS  /tmp/ccZFOTRI.s 			page 42


 901:Drivers/STM32L4xx_HAL_Driver/Src/stm32l4xx_hal_flash_ex.c ****       assert_param(IS_OB_USER_BOOT1(UserConfig & FLASH_OPTR_nBOOT1));
 902:Drivers/STM32L4xx_HAL_Driver/Src/stm32l4xx_hal_flash_ex.c **** 
 903:Drivers/STM32L4xx_HAL_Driver/Src/stm32l4xx_hal_flash_ex.c ****       /* Set value and mask for nBOOT1 option byte */
 904:Drivers/STM32L4xx_HAL_Driver/Src/stm32l4xx_hal_flash_ex.c ****       optr_reg_val |= (UserConfig & FLASH_OPTR_nBOOT1);
 1451              		.loc 1 904 35
 1452 015c 3B68     		ldr	r3, [r7]
 1453 015e 03F40003 		and	r3, r3, #8388608
 1454              		.loc 1 904 20
 1455 0162 7A69     		ldr	r2, [r7, #20]
 1456 0164 1343     		orrs	r3, r3, r2
 1457 0166 7B61     		str	r3, [r7, #20]
 905:Drivers/STM32L4xx_HAL_Driver/Src/stm32l4xx_hal_flash_ex.c ****       optr_reg_mask |= FLASH_OPTR_nBOOT1;
 1458              		.loc 1 905 21
 1459 0168 3B69     		ldr	r3, [r7, #16]
 1460 016a 43F40003 		orr	r3, r3, #8388608
 1461 016e 3B61     		str	r3, [r7, #16]
 1462              	.L88:
 906:Drivers/STM32L4xx_HAL_Driver/Src/stm32l4xx_hal_flash_ex.c ****     }
 907:Drivers/STM32L4xx_HAL_Driver/Src/stm32l4xx_hal_flash_ex.c **** 
 908:Drivers/STM32L4xx_HAL_Driver/Src/stm32l4xx_hal_flash_ex.c ****     if((UserType & OB_USER_SRAM2_PE) != 0U)
 1463              		.loc 1 908 18
 1464 0170 7B68     		ldr	r3, [r7, #4]
 1465 0172 03F48063 		and	r3, r3, #1024
 1466              		.loc 1 908 7
 1467 0176 002B     		cmp	r3, #0
 1468 0178 09D0     		beq	.L89
 909:Drivers/STM32L4xx_HAL_Driver/Src/stm32l4xx_hal_flash_ex.c ****     {
 910:Drivers/STM32L4xx_HAL_Driver/Src/stm32l4xx_hal_flash_ex.c ****       /* SRAM2_PE option byte should be modified */
 911:Drivers/STM32L4xx_HAL_Driver/Src/stm32l4xx_hal_flash_ex.c ****       assert_param(IS_OB_USER_SRAM2_PARITY(UserConfig & FLASH_OPTR_SRAM2_PE));
 912:Drivers/STM32L4xx_HAL_Driver/Src/stm32l4xx_hal_flash_ex.c **** 
 913:Drivers/STM32L4xx_HAL_Driver/Src/stm32l4xx_hal_flash_ex.c ****       /* Set value and mask for SRAM2_PE option byte */
 914:Drivers/STM32L4xx_HAL_Driver/Src/stm32l4xx_hal_flash_ex.c ****       optr_reg_val |= (UserConfig & FLASH_OPTR_SRAM2_PE);
 1469              		.loc 1 914 35
 1470 017a 3B68     		ldr	r3, [r7]
 1471 017c 03F08073 		and	r3, r3, #16777216
 1472              		.loc 1 914 20
 1473 0180 7A69     		ldr	r2, [r7, #20]
 1474 0182 1343     		orrs	r3, r3, r2
 1475 0184 7B61     		str	r3, [r7, #20]
 915:Drivers/STM32L4xx_HAL_Driver/Src/stm32l4xx_hal_flash_ex.c ****       optr_reg_mask |= FLASH_OPTR_SRAM2_PE;
 1476              		.loc 1 915 21
 1477 0186 3B69     		ldr	r3, [r7, #16]
 1478 0188 43F08073 		orr	r3, r3, #16777216
 1479 018c 3B61     		str	r3, [r7, #16]
 1480              	.L89:
 916:Drivers/STM32L4xx_HAL_Driver/Src/stm32l4xx_hal_flash_ex.c ****     }
 917:Drivers/STM32L4xx_HAL_Driver/Src/stm32l4xx_hal_flash_ex.c **** 
 918:Drivers/STM32L4xx_HAL_Driver/Src/stm32l4xx_hal_flash_ex.c ****     if((UserType & OB_USER_SRAM2_RST) != 0U)
 1481              		.loc 1 918 18
 1482 018e 7B68     		ldr	r3, [r7, #4]
 1483 0190 03F40063 		and	r3, r3, #2048
 1484              		.loc 1 918 7
 1485 0194 002B     		cmp	r3, #0
 1486 0196 09D0     		beq	.L90
 919:Drivers/STM32L4xx_HAL_Driver/Src/stm32l4xx_hal_flash_ex.c ****     {
 920:Drivers/STM32L4xx_HAL_Driver/Src/stm32l4xx_hal_flash_ex.c ****       /* SRAM2_RST option byte should be modified */
 921:Drivers/STM32L4xx_HAL_Driver/Src/stm32l4xx_hal_flash_ex.c ****       assert_param(IS_OB_USER_SRAM2_RST(UserConfig & FLASH_OPTR_SRAM2_RST));
ARM GAS  /tmp/ccZFOTRI.s 			page 43


 922:Drivers/STM32L4xx_HAL_Driver/Src/stm32l4xx_hal_flash_ex.c **** 
 923:Drivers/STM32L4xx_HAL_Driver/Src/stm32l4xx_hal_flash_ex.c ****       /* Set value and mask for SRAM2_RST option byte */
 924:Drivers/STM32L4xx_HAL_Driver/Src/stm32l4xx_hal_flash_ex.c ****       optr_reg_val |= (UserConfig & FLASH_OPTR_SRAM2_RST);
 1487              		.loc 1 924 35
 1488 0198 3B68     		ldr	r3, [r7]
 1489 019a 03F00073 		and	r3, r3, #33554432
 1490              		.loc 1 924 20
 1491 019e 7A69     		ldr	r2, [r7, #20]
 1492 01a0 1343     		orrs	r3, r3, r2
 1493 01a2 7B61     		str	r3, [r7, #20]
 925:Drivers/STM32L4xx_HAL_Driver/Src/stm32l4xx_hal_flash_ex.c ****       optr_reg_mask |= FLASH_OPTR_SRAM2_RST;
 1494              		.loc 1 925 21
 1495 01a4 3B69     		ldr	r3, [r7, #16]
 1496 01a6 43F00073 		orr	r3, r3, #33554432
 1497 01aa 3B61     		str	r3, [r7, #16]
 1498              	.L90:
 926:Drivers/STM32L4xx_HAL_Driver/Src/stm32l4xx_hal_flash_ex.c ****     }
 927:Drivers/STM32L4xx_HAL_Driver/Src/stm32l4xx_hal_flash_ex.c **** 
 928:Drivers/STM32L4xx_HAL_Driver/Src/stm32l4xx_hal_flash_ex.c **** #if defined (STM32L412xx) || defined (STM32L422xx) || defined (STM32L431xx) || defined (STM32L432xx
 929:Drivers/STM32L4xx_HAL_Driver/Src/stm32l4xx_hal_flash_ex.c ****     defined (STM32L442xx) || defined (STM32L443xx) || defined (STM32L451xx) || defined (STM32L452xx
 930:Drivers/STM32L4xx_HAL_Driver/Src/stm32l4xx_hal_flash_ex.c ****     defined (STM32L496xx) || defined (STM32L4A6xx) || \
 931:Drivers/STM32L4xx_HAL_Driver/Src/stm32l4xx_hal_flash_ex.c ****     defined (STM32L4R5xx) || defined (STM32L4R7xx) || defined (STM32L4R9xx) || defined (STM32L4S5xx
 932:Drivers/STM32L4xx_HAL_Driver/Src/stm32l4xx_hal_flash_ex.c ****     if((UserType & OB_USER_nSWBOOT0) != 0U)
 1499              		.loc 1 932 18
 1500 01ac 7B68     		ldr	r3, [r7, #4]
 1501 01ae 03F40053 		and	r3, r3, #8192
 1502              		.loc 1 932 7
 1503 01b2 002B     		cmp	r3, #0
 1504 01b4 09D0     		beq	.L91
 933:Drivers/STM32L4xx_HAL_Driver/Src/stm32l4xx_hal_flash_ex.c ****     {
 934:Drivers/STM32L4xx_HAL_Driver/Src/stm32l4xx_hal_flash_ex.c ****       /* nSWBOOT0 option byte should be modified */
 935:Drivers/STM32L4xx_HAL_Driver/Src/stm32l4xx_hal_flash_ex.c ****       assert_param(IS_OB_USER_SWBOOT0(UserConfig & FLASH_OPTR_nSWBOOT0));
 936:Drivers/STM32L4xx_HAL_Driver/Src/stm32l4xx_hal_flash_ex.c **** 
 937:Drivers/STM32L4xx_HAL_Driver/Src/stm32l4xx_hal_flash_ex.c ****       /* Set value and mask for nSWBOOT0 option byte */
 938:Drivers/STM32L4xx_HAL_Driver/Src/stm32l4xx_hal_flash_ex.c ****       optr_reg_val |= (UserConfig & FLASH_OPTR_nSWBOOT0);
 1505              		.loc 1 938 35
 1506 01b6 3B68     		ldr	r3, [r7]
 1507 01b8 03F08063 		and	r3, r3, #67108864
 1508              		.loc 1 938 20
 1509 01bc 7A69     		ldr	r2, [r7, #20]
 1510 01be 1343     		orrs	r3, r3, r2
 1511 01c0 7B61     		str	r3, [r7, #20]
 939:Drivers/STM32L4xx_HAL_Driver/Src/stm32l4xx_hal_flash_ex.c ****       optr_reg_mask |= FLASH_OPTR_nSWBOOT0;
 1512              		.loc 1 939 21
 1513 01c2 3B69     		ldr	r3, [r7, #16]
 1514 01c4 43F08063 		orr	r3, r3, #67108864
 1515 01c8 3B61     		str	r3, [r7, #16]
 1516              	.L91:
 940:Drivers/STM32L4xx_HAL_Driver/Src/stm32l4xx_hal_flash_ex.c ****     }
 941:Drivers/STM32L4xx_HAL_Driver/Src/stm32l4xx_hal_flash_ex.c **** 
 942:Drivers/STM32L4xx_HAL_Driver/Src/stm32l4xx_hal_flash_ex.c ****     if((UserType & OB_USER_nBOOT0) != 0U)
 1517              		.loc 1 942 18
 1518 01ca 7B68     		ldr	r3, [r7, #4]
 1519 01cc 03F48043 		and	r3, r3, #16384
 1520              		.loc 1 942 7
 1521 01d0 002B     		cmp	r3, #0
 1522 01d2 09D0     		beq	.L92
ARM GAS  /tmp/ccZFOTRI.s 			page 44


 943:Drivers/STM32L4xx_HAL_Driver/Src/stm32l4xx_hal_flash_ex.c ****     {
 944:Drivers/STM32L4xx_HAL_Driver/Src/stm32l4xx_hal_flash_ex.c ****       /* nBOOT0 option byte should be modified */
 945:Drivers/STM32L4xx_HAL_Driver/Src/stm32l4xx_hal_flash_ex.c ****       assert_param(IS_OB_USER_BOOT0(UserConfig & FLASH_OPTR_nBOOT0));
 946:Drivers/STM32L4xx_HAL_Driver/Src/stm32l4xx_hal_flash_ex.c **** 
 947:Drivers/STM32L4xx_HAL_Driver/Src/stm32l4xx_hal_flash_ex.c ****       /* Set value and mask for nBOOT0 option byte */
 948:Drivers/STM32L4xx_HAL_Driver/Src/stm32l4xx_hal_flash_ex.c ****       optr_reg_val |= (UserConfig & FLASH_OPTR_nBOOT0);
 1523              		.loc 1 948 35
 1524 01d4 3B68     		ldr	r3, [r7]
 1525 01d6 03F00063 		and	r3, r3, #134217728
 1526              		.loc 1 948 20
 1527 01da 7A69     		ldr	r2, [r7, #20]
 1528 01dc 1343     		orrs	r3, r3, r2
 1529 01de 7B61     		str	r3, [r7, #20]
 949:Drivers/STM32L4xx_HAL_Driver/Src/stm32l4xx_hal_flash_ex.c ****       optr_reg_mask |= FLASH_OPTR_nBOOT0;
 1530              		.loc 1 949 21
 1531 01e0 3B69     		ldr	r3, [r7, #16]
 1532 01e2 43F00063 		orr	r3, r3, #134217728
 1533 01e6 3B61     		str	r3, [r7, #16]
 1534              	.L92:
 950:Drivers/STM32L4xx_HAL_Driver/Src/stm32l4xx_hal_flash_ex.c ****     }
 951:Drivers/STM32L4xx_HAL_Driver/Src/stm32l4xx_hal_flash_ex.c **** #endif
 952:Drivers/STM32L4xx_HAL_Driver/Src/stm32l4xx_hal_flash_ex.c **** 
 953:Drivers/STM32L4xx_HAL_Driver/Src/stm32l4xx_hal_flash_ex.c ****     /* Configure the option bytes register */
 954:Drivers/STM32L4xx_HAL_Driver/Src/stm32l4xx_hal_flash_ex.c ****     MODIFY_REG(FLASH->OPTR, optr_reg_mask, optr_reg_val);
 1535              		.loc 1 954 5
 1536 01e8 0F4B     		ldr	r3, .L94
 1537 01ea 1A6A     		ldr	r2, [r3, #32]
 1538 01ec 3B69     		ldr	r3, [r7, #16]
 1539 01ee DB43     		mvns	r3, r3
 1540 01f0 1A40     		ands	r2, r2, r3
 1541 01f2 0D49     		ldr	r1, .L94
 1542 01f4 7B69     		ldr	r3, [r7, #20]
 1543 01f6 1343     		orrs	r3, r3, r2
 1544 01f8 0B62     		str	r3, [r1, #32]
 955:Drivers/STM32L4xx_HAL_Driver/Src/stm32l4xx_hal_flash_ex.c **** 
 956:Drivers/STM32L4xx_HAL_Driver/Src/stm32l4xx_hal_flash_ex.c ****     /* Set OPTSTRT Bit */
 957:Drivers/STM32L4xx_HAL_Driver/Src/stm32l4xx_hal_flash_ex.c ****     SET_BIT(FLASH->CR, FLASH_CR_OPTSTRT);
 1545              		.loc 1 957 5
 1546 01fa 0B4B     		ldr	r3, .L94
 1547 01fc 5B69     		ldr	r3, [r3, #20]
 1548 01fe 0A4A     		ldr	r2, .L94
 1549 0200 43F40033 		orr	r3, r3, #131072
 1550 0204 5361     		str	r3, [r2, #20]
 958:Drivers/STM32L4xx_HAL_Driver/Src/stm32l4xx_hal_flash_ex.c **** 
 959:Drivers/STM32L4xx_HAL_Driver/Src/stm32l4xx_hal_flash_ex.c ****     /* Wait for last operation to be completed */
 960:Drivers/STM32L4xx_HAL_Driver/Src/stm32l4xx_hal_flash_ex.c ****     status = FLASH_WaitForLastOperation((uint32_t)FLASH_TIMEOUT_VALUE);
 1551              		.loc 1 960 14
 1552 0206 4CF25030 		movw	r0, #50000
 1553 020a FFF7FEFF 		bl	FLASH_WaitForLastOperation
 1554 020e 0346     		mov	r3, r0
 1555 0210 FB73     		strb	r3, [r7, #15]
 961:Drivers/STM32L4xx_HAL_Driver/Src/stm32l4xx_hal_flash_ex.c **** 
 962:Drivers/STM32L4xx_HAL_Driver/Src/stm32l4xx_hal_flash_ex.c ****     /* If the option byte program operation is completed, disable the OPTSTRT Bit */
 963:Drivers/STM32L4xx_HAL_Driver/Src/stm32l4xx_hal_flash_ex.c ****     CLEAR_BIT(FLASH->CR, FLASH_CR_OPTSTRT);
 1556              		.loc 1 963 5
 1557 0212 054B     		ldr	r3, .L94
 1558 0214 5B69     		ldr	r3, [r3, #20]
ARM GAS  /tmp/ccZFOTRI.s 			page 45


 1559 0216 044A     		ldr	r2, .L94
 1560 0218 23F40033 		bic	r3, r3, #131072
 1561 021c 5361     		str	r3, [r2, #20]
 1562              	.L77:
 964:Drivers/STM32L4xx_HAL_Driver/Src/stm32l4xx_hal_flash_ex.c ****   }
 965:Drivers/STM32L4xx_HAL_Driver/Src/stm32l4xx_hal_flash_ex.c **** 
 966:Drivers/STM32L4xx_HAL_Driver/Src/stm32l4xx_hal_flash_ex.c ****   return status;
 1563              		.loc 1 966 10
 1564 021e FB7B     		ldrb	r3, [r7, #15]	@ zero_extendqisi2
 967:Drivers/STM32L4xx_HAL_Driver/Src/stm32l4xx_hal_flash_ex.c **** }
 1565              		.loc 1 967 1
 1566 0220 1846     		mov	r0, r3
 1567 0222 1837     		adds	r7, r7, #24
 1568              	.LCFI51:
 1569              		.cfi_def_cfa_offset 8
 1570 0224 BD46     		mov	sp, r7
 1571              	.LCFI52:
 1572              		.cfi_def_cfa_register 13
 1573              		@ sp needed
 1574 0226 80BD     		pop	{r7, pc}
 1575              	.L95:
 1576              		.align	2
 1577              	.L94:
 1578 0228 00200240 		.word	1073881088
 1579              		.cfi_endproc
 1580              	.LFE139:
 1582              		.section	.text.FLASH_OB_PCROPConfig,"ax",%progbits
 1583              		.align	1
 1584              		.syntax unified
 1585              		.thumb
 1586              		.thumb_func
 1587              		.fpu fpv4-sp-d16
 1589              	FLASH_OB_PCROPConfig:
 1590              	.LFB140:
 968:Drivers/STM32L4xx_HAL_Driver/Src/stm32l4xx_hal_flash_ex.c **** 
 969:Drivers/STM32L4xx_HAL_Driver/Src/stm32l4xx_hal_flash_ex.c **** /**
 970:Drivers/STM32L4xx_HAL_Driver/Src/stm32l4xx_hal_flash_ex.c ****   * @brief  Configure the Proprietary code readout protection of the desired addresses.
 971:Drivers/STM32L4xx_HAL_Driver/Src/stm32l4xx_hal_flash_ex.c ****   *
 972:Drivers/STM32L4xx_HAL_Driver/Src/stm32l4xx_hal_flash_ex.c ****   * @note   To configure the PCROP options, the option lock bit OPTLOCK must be
 973:Drivers/STM32L4xx_HAL_Driver/Src/stm32l4xx_hal_flash_ex.c ****   *         cleared with the call of the HAL_FLASH_OB_Unlock() function.
 974:Drivers/STM32L4xx_HAL_Driver/Src/stm32l4xx_hal_flash_ex.c ****   * @note   To validate the PCROP options, the option bytes must be reloaded
 975:Drivers/STM32L4xx_HAL_Driver/Src/stm32l4xx_hal_flash_ex.c ****   *         through the call of the HAL_FLASH_OB_Launch() function.
 976:Drivers/STM32L4xx_HAL_Driver/Src/stm32l4xx_hal_flash_ex.c ****   *
 977:Drivers/STM32L4xx_HAL_Driver/Src/stm32l4xx_hal_flash_ex.c ****   * @param  PCROPConfig: specifies the configuration (Bank to be configured and PCROP_RDP option).
 978:Drivers/STM32L4xx_HAL_Driver/Src/stm32l4xx_hal_flash_ex.c ****   *          This parameter must be a combination of FLASH_BANK_1 or FLASH_BANK_2
 979:Drivers/STM32L4xx_HAL_Driver/Src/stm32l4xx_hal_flash_ex.c ****   *          with OB_PCROP_RDP_NOT_ERASE or OB_PCROP_RDP_ERASE
 980:Drivers/STM32L4xx_HAL_Driver/Src/stm32l4xx_hal_flash_ex.c ****   *
 981:Drivers/STM32L4xx_HAL_Driver/Src/stm32l4xx_hal_flash_ex.c ****   * @param  PCROPStartAddr: specifies the start address of the Proprietary code readout protection
 982:Drivers/STM32L4xx_HAL_Driver/Src/stm32l4xx_hal_flash_ex.c ****   *          This parameter can be an address between begin and end of the bank
 983:Drivers/STM32L4xx_HAL_Driver/Src/stm32l4xx_hal_flash_ex.c ****   *
 984:Drivers/STM32L4xx_HAL_Driver/Src/stm32l4xx_hal_flash_ex.c ****   * @param  PCROPEndAddr: specifies the end address of the Proprietary code readout protection
 985:Drivers/STM32L4xx_HAL_Driver/Src/stm32l4xx_hal_flash_ex.c ****   *          This parameter can be an address between PCROPStartAddr and end of the bank
 986:Drivers/STM32L4xx_HAL_Driver/Src/stm32l4xx_hal_flash_ex.c ****   *
 987:Drivers/STM32L4xx_HAL_Driver/Src/stm32l4xx_hal_flash_ex.c ****   * @retval HAL Status
 988:Drivers/STM32L4xx_HAL_Driver/Src/stm32l4xx_hal_flash_ex.c ****   */
 989:Drivers/STM32L4xx_HAL_Driver/Src/stm32l4xx_hal_flash_ex.c **** static HAL_StatusTypeDef FLASH_OB_PCROPConfig(uint32_t PCROPConfig, uint32_t PCROPStartAddr, uint32
 990:Drivers/STM32L4xx_HAL_Driver/Src/stm32l4xx_hal_flash_ex.c **** {
ARM GAS  /tmp/ccZFOTRI.s 			page 46


 1591              		.loc 1 990 1
 1592              		.cfi_startproc
 1593              		@ args = 0, pretend = 0, frame = 32
 1594              		@ frame_needed = 1, uses_anonymous_args = 0
 1595 0000 80B5     		push	{r7, lr}
 1596              	.LCFI53:
 1597              		.cfi_def_cfa_offset 8
 1598              		.cfi_offset 7, -8
 1599              		.cfi_offset 14, -4
 1600 0002 88B0     		sub	sp, sp, #32
 1601              	.LCFI54:
 1602              		.cfi_def_cfa_offset 40
 1603 0004 00AF     		add	r7, sp, #0
 1604              	.LCFI55:
 1605              		.cfi_def_cfa_register 7
 1606 0006 F860     		str	r0, [r7, #12]
 1607 0008 B960     		str	r1, [r7, #8]
 1608 000a 7A60     		str	r2, [r7, #4]
 991:Drivers/STM32L4xx_HAL_Driver/Src/stm32l4xx_hal_flash_ex.c ****   HAL_StatusTypeDef status;
 992:Drivers/STM32L4xx_HAL_Driver/Src/stm32l4xx_hal_flash_ex.c ****   uint32_t reg_value;
 993:Drivers/STM32L4xx_HAL_Driver/Src/stm32l4xx_hal_flash_ex.c ****   uint32_t bank1_addr;
 994:Drivers/STM32L4xx_HAL_Driver/Src/stm32l4xx_hal_flash_ex.c **** #if defined (STM32L471xx) || defined (STM32L475xx) || defined (STM32L476xx) || defined (STM32L485xx
 995:Drivers/STM32L4xx_HAL_Driver/Src/stm32l4xx_hal_flash_ex.c ****     defined (STM32L496xx) || defined (STM32L4A6xx) || \
 996:Drivers/STM32L4xx_HAL_Driver/Src/stm32l4xx_hal_flash_ex.c ****     defined (STM32L4R5xx) || defined (STM32L4R7xx) || defined (STM32L4R9xx) || defined (STM32L4S5xx
 997:Drivers/STM32L4xx_HAL_Driver/Src/stm32l4xx_hal_flash_ex.c ****   uint32_t bank2_addr;
 998:Drivers/STM32L4xx_HAL_Driver/Src/stm32l4xx_hal_flash_ex.c **** #endif
 999:Drivers/STM32L4xx_HAL_Driver/Src/stm32l4xx_hal_flash_ex.c **** 
1000:Drivers/STM32L4xx_HAL_Driver/Src/stm32l4xx_hal_flash_ex.c ****   /* Check the parameters */
1001:Drivers/STM32L4xx_HAL_Driver/Src/stm32l4xx_hal_flash_ex.c ****   assert_param(IS_FLASH_BANK_EXCLUSIVE(PCROPConfig & FLASH_BANK_BOTH));
1002:Drivers/STM32L4xx_HAL_Driver/Src/stm32l4xx_hal_flash_ex.c ****   assert_param(IS_OB_PCROP_RDP(PCROPConfig & FLASH_PCROP1ER_PCROP_RDP));
1003:Drivers/STM32L4xx_HAL_Driver/Src/stm32l4xx_hal_flash_ex.c ****   assert_param(IS_FLASH_MAIN_MEM_ADDRESS(PCROPStartAddr));
1004:Drivers/STM32L4xx_HAL_Driver/Src/stm32l4xx_hal_flash_ex.c ****   assert_param(IS_FLASH_MAIN_MEM_ADDRESS(PCROPEndAddr));
1005:Drivers/STM32L4xx_HAL_Driver/Src/stm32l4xx_hal_flash_ex.c **** 
1006:Drivers/STM32L4xx_HAL_Driver/Src/stm32l4xx_hal_flash_ex.c ****   /* Wait for last operation to be completed */
1007:Drivers/STM32L4xx_HAL_Driver/Src/stm32l4xx_hal_flash_ex.c ****   status = FLASH_WaitForLastOperation((uint32_t)FLASH_TIMEOUT_VALUE);
 1609              		.loc 1 1007 12
 1610 000c 4CF25030 		movw	r0, #50000
 1611 0010 FFF7FEFF 		bl	FLASH_WaitForLastOperation
 1612 0014 0346     		mov	r3, r0
 1613 0016 FB77     		strb	r3, [r7, #31]
1008:Drivers/STM32L4xx_HAL_Driver/Src/stm32l4xx_hal_flash_ex.c **** 
1009:Drivers/STM32L4xx_HAL_Driver/Src/stm32l4xx_hal_flash_ex.c ****   if(status == HAL_OK)
 1614              		.loc 1 1009 5
 1615 0018 FB7F     		ldrb	r3, [r7, #31]	@ zero_extendqisi2
 1616 001a 002B     		cmp	r3, #0
 1617 001c 40F08C80 		bne	.L97
1010:Drivers/STM32L4xx_HAL_Driver/Src/stm32l4xx_hal_flash_ex.c ****   {
1011:Drivers/STM32L4xx_HAL_Driver/Src/stm32l4xx_hal_flash_ex.c **** #if defined (STM32L471xx) || defined (STM32L475xx) || defined (STM32L476xx) || defined (STM32L485xx
1012:Drivers/STM32L4xx_HAL_Driver/Src/stm32l4xx_hal_flash_ex.c ****     defined (STM32L496xx) || defined (STM32L4A6xx) || \
1013:Drivers/STM32L4xx_HAL_Driver/Src/stm32l4xx_hal_flash_ex.c ****     defined (STM32L4R5xx) || defined (STM32L4R7xx) || defined (STM32L4R9xx) || defined (STM32L4S5xx
1014:Drivers/STM32L4xx_HAL_Driver/Src/stm32l4xx_hal_flash_ex.c ****     /* Get the information about the bank swapping */
1015:Drivers/STM32L4xx_HAL_Driver/Src/stm32l4xx_hal_flash_ex.c ****     if (READ_BIT(SYSCFG->MEMRMP, SYSCFG_MEMRMP_FB_MODE) == 0U)
 1618              		.loc 1 1015 9
 1619 0020 484B     		ldr	r3, .L107
 1620 0022 1B68     		ldr	r3, [r3]
 1621 0024 03F48073 		and	r3, r3, #256
 1622              		.loc 1 1015 8
ARM GAS  /tmp/ccZFOTRI.s 			page 47


 1623 0028 002B     		cmp	r3, #0
 1624 002a 15D1     		bne	.L98
1016:Drivers/STM32L4xx_HAL_Driver/Src/stm32l4xx_hal_flash_ex.c ****     {
1017:Drivers/STM32L4xx_HAL_Driver/Src/stm32l4xx_hal_flash_ex.c ****       bank1_addr = FLASH_BASE;
 1625              		.loc 1 1017 18
 1626 002c 4FF00063 		mov	r3, #134217728
 1627 0030 BB61     		str	r3, [r7, #24]
1018:Drivers/STM32L4xx_HAL_Driver/Src/stm32l4xx_hal_flash_ex.c ****       bank2_addr = FLASH_BASE + FLASH_BANK_SIZE;
 1628              		.loc 1 1018 33
 1629 0032 454B     		ldr	r3, .L107+4
 1630 0034 1B68     		ldr	r3, [r3]
 1631 0036 9BB2     		uxth	r3, r3
 1632              		.loc 1 1018 31
 1633 0038 4FF6FF72 		movw	r2, #65535
 1634 003c 9342     		cmp	r3, r2
 1635 003e 08D0     		beq	.L99
 1636              		.loc 1 1018 33 discriminator 1
 1637 0040 414B     		ldr	r3, .L107+4
 1638 0042 1B68     		ldr	r3, [r3]
 1639 0044 9B02     		lsls	r3, r3, #10
 1640 0046 5A08     		lsrs	r2, r3, #1
 1641 0048 404B     		ldr	r3, .L107+8
 1642 004a 1340     		ands	r3, r3, r2
 1643              		.loc 1 1018 31 discriminator 1
 1644 004c 03F10063 		add	r3, r3, #134217728
 1645 0050 00E0     		b	.L100
 1646              	.L99:
 1647              		.loc 1 1018 31 is_stmt 0 discriminator 2
 1648 0052 3F4B     		ldr	r3, .L107+12
 1649              	.L100:
 1650              		.loc 1 1018 18 is_stmt 1 discriminator 4
 1651 0054 7B61     		str	r3, [r7, #20]
 1652 0056 14E0     		b	.L101
 1653              	.L98:
1019:Drivers/STM32L4xx_HAL_Driver/Src/stm32l4xx_hal_flash_ex.c ****     }
1020:Drivers/STM32L4xx_HAL_Driver/Src/stm32l4xx_hal_flash_ex.c ****     else
1021:Drivers/STM32L4xx_HAL_Driver/Src/stm32l4xx_hal_flash_ex.c ****     {
1022:Drivers/STM32L4xx_HAL_Driver/Src/stm32l4xx_hal_flash_ex.c ****       bank1_addr = FLASH_BASE + FLASH_BANK_SIZE;
 1654              		.loc 1 1022 33
 1655 0058 3B4B     		ldr	r3, .L107+4
 1656 005a 1B68     		ldr	r3, [r3]
 1657 005c 9BB2     		uxth	r3, r3
 1658              		.loc 1 1022 31
 1659 005e 4FF6FF72 		movw	r2, #65535
 1660 0062 9342     		cmp	r3, r2
 1661 0064 08D0     		beq	.L102
 1662              		.loc 1 1022 33 discriminator 1
 1663 0066 384B     		ldr	r3, .L107+4
 1664 0068 1B68     		ldr	r3, [r3]
 1665 006a 9B02     		lsls	r3, r3, #10
 1666 006c 5A08     		lsrs	r2, r3, #1
 1667 006e 374B     		ldr	r3, .L107+8
 1668 0070 1340     		ands	r3, r3, r2
 1669              		.loc 1 1022 31 discriminator 1
 1670 0072 03F10063 		add	r3, r3, #134217728
 1671 0076 00E0     		b	.L103
 1672              	.L102:
ARM GAS  /tmp/ccZFOTRI.s 			page 48


 1673              		.loc 1 1022 31 is_stmt 0 discriminator 2
 1674 0078 354B     		ldr	r3, .L107+12
 1675              	.L103:
 1676              		.loc 1 1022 18 is_stmt 1 discriminator 4
 1677 007a BB61     		str	r3, [r7, #24]
1023:Drivers/STM32L4xx_HAL_Driver/Src/stm32l4xx_hal_flash_ex.c ****       bank2_addr = FLASH_BASE;
 1678              		.loc 1 1023 18 discriminator 4
 1679 007c 4FF00063 		mov	r3, #134217728
 1680 0080 7B61     		str	r3, [r7, #20]
 1681              	.L101:
1024:Drivers/STM32L4xx_HAL_Driver/Src/stm32l4xx_hal_flash_ex.c ****     }
1025:Drivers/STM32L4xx_HAL_Driver/Src/stm32l4xx_hal_flash_ex.c **** #else
1026:Drivers/STM32L4xx_HAL_Driver/Src/stm32l4xx_hal_flash_ex.c ****     bank1_addr = FLASH_BASE;
1027:Drivers/STM32L4xx_HAL_Driver/Src/stm32l4xx_hal_flash_ex.c **** #endif
1028:Drivers/STM32L4xx_HAL_Driver/Src/stm32l4xx_hal_flash_ex.c **** 
1029:Drivers/STM32L4xx_HAL_Driver/Src/stm32l4xx_hal_flash_ex.c **** #if defined (STM32L4R5xx) || defined (STM32L4R7xx) || defined (STM32L4R9xx) || defined (STM32L4S5xx
1030:Drivers/STM32L4xx_HAL_Driver/Src/stm32l4xx_hal_flash_ex.c ****     if (READ_BIT(FLASH->OPTR, FLASH_OPTR_DBANK) == 0U)
1031:Drivers/STM32L4xx_HAL_Driver/Src/stm32l4xx_hal_flash_ex.c ****     {
1032:Drivers/STM32L4xx_HAL_Driver/Src/stm32l4xx_hal_flash_ex.c ****       /* Configure the Proprietary code readout protection */
1033:Drivers/STM32L4xx_HAL_Driver/Src/stm32l4xx_hal_flash_ex.c ****       if((PCROPConfig & FLASH_BANK_BOTH) == FLASH_BANK_1)
1034:Drivers/STM32L4xx_HAL_Driver/Src/stm32l4xx_hal_flash_ex.c ****       {
1035:Drivers/STM32L4xx_HAL_Driver/Src/stm32l4xx_hal_flash_ex.c ****         reg_value = ((PCROPStartAddr - FLASH_BASE) >> 4);
1036:Drivers/STM32L4xx_HAL_Driver/Src/stm32l4xx_hal_flash_ex.c ****         MODIFY_REG(FLASH->PCROP1SR, FLASH_PCROP1SR_PCROP1_STRT, reg_value);
1037:Drivers/STM32L4xx_HAL_Driver/Src/stm32l4xx_hal_flash_ex.c **** 
1038:Drivers/STM32L4xx_HAL_Driver/Src/stm32l4xx_hal_flash_ex.c ****         reg_value = ((PCROPEndAddr - FLASH_BASE) >> 4);
1039:Drivers/STM32L4xx_HAL_Driver/Src/stm32l4xx_hal_flash_ex.c ****         MODIFY_REG(FLASH->PCROP1ER, FLASH_PCROP1ER_PCROP1_END, reg_value);
1040:Drivers/STM32L4xx_HAL_Driver/Src/stm32l4xx_hal_flash_ex.c ****       }
1041:Drivers/STM32L4xx_HAL_Driver/Src/stm32l4xx_hal_flash_ex.c ****       else if((PCROPConfig & FLASH_BANK_BOTH) == FLASH_BANK_2)
1042:Drivers/STM32L4xx_HAL_Driver/Src/stm32l4xx_hal_flash_ex.c ****       {
1043:Drivers/STM32L4xx_HAL_Driver/Src/stm32l4xx_hal_flash_ex.c ****         reg_value = ((PCROPStartAddr - FLASH_BASE) >> 4);
1044:Drivers/STM32L4xx_HAL_Driver/Src/stm32l4xx_hal_flash_ex.c ****         MODIFY_REG(FLASH->PCROP2SR, FLASH_PCROP2SR_PCROP2_STRT, reg_value);
1045:Drivers/STM32L4xx_HAL_Driver/Src/stm32l4xx_hal_flash_ex.c **** 
1046:Drivers/STM32L4xx_HAL_Driver/Src/stm32l4xx_hal_flash_ex.c ****         reg_value = ((PCROPEndAddr - FLASH_BASE) >> 4);
1047:Drivers/STM32L4xx_HAL_Driver/Src/stm32l4xx_hal_flash_ex.c ****         MODIFY_REG(FLASH->PCROP2ER, FLASH_PCROP2ER_PCROP2_END, reg_value);
1048:Drivers/STM32L4xx_HAL_Driver/Src/stm32l4xx_hal_flash_ex.c ****       }
1049:Drivers/STM32L4xx_HAL_Driver/Src/stm32l4xx_hal_flash_ex.c ****       else
1050:Drivers/STM32L4xx_HAL_Driver/Src/stm32l4xx_hal_flash_ex.c ****       {
1051:Drivers/STM32L4xx_HAL_Driver/Src/stm32l4xx_hal_flash_ex.c ****         /* Nothing to do */
1052:Drivers/STM32L4xx_HAL_Driver/Src/stm32l4xx_hal_flash_ex.c ****       }
1053:Drivers/STM32L4xx_HAL_Driver/Src/stm32l4xx_hal_flash_ex.c ****     }
1054:Drivers/STM32L4xx_HAL_Driver/Src/stm32l4xx_hal_flash_ex.c ****     else
1055:Drivers/STM32L4xx_HAL_Driver/Src/stm32l4xx_hal_flash_ex.c **** #endif
1056:Drivers/STM32L4xx_HAL_Driver/Src/stm32l4xx_hal_flash_ex.c ****     {
1057:Drivers/STM32L4xx_HAL_Driver/Src/stm32l4xx_hal_flash_ex.c ****       /* Configure the Proprietary code readout protection */
1058:Drivers/STM32L4xx_HAL_Driver/Src/stm32l4xx_hal_flash_ex.c ****       if((PCROPConfig & FLASH_BANK_BOTH) == FLASH_BANK_1)
 1682              		.loc 1 1058 23
 1683 0082 FB68     		ldr	r3, [r7, #12]
 1684 0084 03F00303 		and	r3, r3, #3
 1685              		.loc 1 1058 9
 1686 0088 012B     		cmp	r3, #1
 1687 008a 1AD1     		bne	.L104
1059:Drivers/STM32L4xx_HAL_Driver/Src/stm32l4xx_hal_flash_ex.c ****       {
1060:Drivers/STM32L4xx_HAL_Driver/Src/stm32l4xx_hal_flash_ex.c ****         reg_value = ((PCROPStartAddr - bank1_addr) >> 3);
 1688              		.loc 1 1060 38
 1689 008c BA68     		ldr	r2, [r7, #8]
 1690 008e BB69     		ldr	r3, [r7, #24]
 1691 0090 D31A     		subs	r3, r2, r3
ARM GAS  /tmp/ccZFOTRI.s 			page 49


 1692              		.loc 1 1060 19
 1693 0092 DB08     		lsrs	r3, r3, #3
 1694 0094 3B61     		str	r3, [r7, #16]
1061:Drivers/STM32L4xx_HAL_Driver/Src/stm32l4xx_hal_flash_ex.c ****         MODIFY_REG(FLASH->PCROP1SR, FLASH_PCROP1SR_PCROP1_STRT, reg_value);
 1695              		.loc 1 1061 9
 1696 0096 2F4B     		ldr	r3, .L107+16
 1697 0098 5B6A     		ldr	r3, [r3, #36]
 1698 009a 1B0C     		lsrs	r3, r3, #16
 1699 009c 1B04     		lsls	r3, r3, #16
 1700 009e 2D49     		ldr	r1, .L107+16
 1701 00a0 3A69     		ldr	r2, [r7, #16]
 1702 00a2 1343     		orrs	r3, r3, r2
 1703 00a4 4B62     		str	r3, [r1, #36]
1062:Drivers/STM32L4xx_HAL_Driver/Src/stm32l4xx_hal_flash_ex.c **** 
1063:Drivers/STM32L4xx_HAL_Driver/Src/stm32l4xx_hal_flash_ex.c ****         reg_value = ((PCROPEndAddr - bank1_addr) >> 3);
 1704              		.loc 1 1063 36
 1705 00a6 7A68     		ldr	r2, [r7, #4]
 1706 00a8 BB69     		ldr	r3, [r7, #24]
 1707 00aa D31A     		subs	r3, r2, r3
 1708              		.loc 1 1063 19
 1709 00ac DB08     		lsrs	r3, r3, #3
 1710 00ae 3B61     		str	r3, [r7, #16]
1064:Drivers/STM32L4xx_HAL_Driver/Src/stm32l4xx_hal_flash_ex.c ****         MODIFY_REG(FLASH->PCROP1ER, FLASH_PCROP1ER_PCROP1_END, reg_value);
 1711              		.loc 1 1064 9
 1712 00b0 284B     		ldr	r3, .L107+16
 1713 00b2 9B6A     		ldr	r3, [r3, #40]
 1714 00b4 1B0C     		lsrs	r3, r3, #16
 1715 00b6 1B04     		lsls	r3, r3, #16
 1716 00b8 2649     		ldr	r1, .L107+16
 1717 00ba 3A69     		ldr	r2, [r7, #16]
 1718 00bc 1343     		orrs	r3, r3, r2
 1719 00be 8B62     		str	r3, [r1, #40]
 1720 00c0 1EE0     		b	.L105
 1721              	.L104:
1065:Drivers/STM32L4xx_HAL_Driver/Src/stm32l4xx_hal_flash_ex.c ****       }
1066:Drivers/STM32L4xx_HAL_Driver/Src/stm32l4xx_hal_flash_ex.c **** #if defined (STM32L471xx) || defined (STM32L475xx) || defined (STM32L476xx) || defined (STM32L485xx
1067:Drivers/STM32L4xx_HAL_Driver/Src/stm32l4xx_hal_flash_ex.c ****     defined (STM32L496xx) || defined (STM32L4A6xx) || \
1068:Drivers/STM32L4xx_HAL_Driver/Src/stm32l4xx_hal_flash_ex.c ****     defined (STM32L4R5xx) || defined (STM32L4R7xx) || defined (STM32L4R9xx) || defined (STM32L4S5xx
1069:Drivers/STM32L4xx_HAL_Driver/Src/stm32l4xx_hal_flash_ex.c ****       else if((PCROPConfig & FLASH_BANK_BOTH) == FLASH_BANK_2)
 1722              		.loc 1 1069 28
 1723 00c2 FB68     		ldr	r3, [r7, #12]
 1724 00c4 03F00303 		and	r3, r3, #3
 1725              		.loc 1 1069 14
 1726 00c8 022B     		cmp	r3, #2
 1727 00ca 19D1     		bne	.L105
1070:Drivers/STM32L4xx_HAL_Driver/Src/stm32l4xx_hal_flash_ex.c ****       {
1071:Drivers/STM32L4xx_HAL_Driver/Src/stm32l4xx_hal_flash_ex.c ****         reg_value = ((PCROPStartAddr - bank2_addr) >> 3);
 1728              		.loc 1 1071 38
 1729 00cc BA68     		ldr	r2, [r7, #8]
 1730 00ce 7B69     		ldr	r3, [r7, #20]
 1731 00d0 D31A     		subs	r3, r2, r3
 1732              		.loc 1 1071 19
 1733 00d2 DB08     		lsrs	r3, r3, #3
 1734 00d4 3B61     		str	r3, [r7, #16]
1072:Drivers/STM32L4xx_HAL_Driver/Src/stm32l4xx_hal_flash_ex.c ****         MODIFY_REG(FLASH->PCROP2SR, FLASH_PCROP2SR_PCROP2_STRT, reg_value);
 1735              		.loc 1 1072 9
 1736 00d6 1F4B     		ldr	r3, .L107+16
ARM GAS  /tmp/ccZFOTRI.s 			page 50


 1737 00d8 5B6C     		ldr	r3, [r3, #68]
 1738 00da 1B0C     		lsrs	r3, r3, #16
 1739 00dc 1B04     		lsls	r3, r3, #16
 1740 00de 1D49     		ldr	r1, .L107+16
 1741 00e0 3A69     		ldr	r2, [r7, #16]
 1742 00e2 1343     		orrs	r3, r3, r2
 1743 00e4 4B64     		str	r3, [r1, #68]
1073:Drivers/STM32L4xx_HAL_Driver/Src/stm32l4xx_hal_flash_ex.c **** 
1074:Drivers/STM32L4xx_HAL_Driver/Src/stm32l4xx_hal_flash_ex.c ****         reg_value = ((PCROPEndAddr - bank2_addr) >> 3);
 1744              		.loc 1 1074 36
 1745 00e6 7A68     		ldr	r2, [r7, #4]
 1746 00e8 7B69     		ldr	r3, [r7, #20]
 1747 00ea D31A     		subs	r3, r2, r3
 1748              		.loc 1 1074 19
 1749 00ec DB08     		lsrs	r3, r3, #3
 1750 00ee 3B61     		str	r3, [r7, #16]
1075:Drivers/STM32L4xx_HAL_Driver/Src/stm32l4xx_hal_flash_ex.c ****         MODIFY_REG(FLASH->PCROP2ER, FLASH_PCROP2ER_PCROP2_END, reg_value);
 1751              		.loc 1 1075 9
 1752 00f0 184B     		ldr	r3, .L107+16
 1753 00f2 9B6C     		ldr	r3, [r3, #72]
 1754 00f4 1B0C     		lsrs	r3, r3, #16
 1755 00f6 1B04     		lsls	r3, r3, #16
 1756 00f8 1649     		ldr	r1, .L107+16
 1757 00fa 3A69     		ldr	r2, [r7, #16]
 1758 00fc 1343     		orrs	r3, r3, r2
 1759 00fe 8B64     		str	r3, [r1, #72]
 1760              	.L105:
1076:Drivers/STM32L4xx_HAL_Driver/Src/stm32l4xx_hal_flash_ex.c ****       }
1077:Drivers/STM32L4xx_HAL_Driver/Src/stm32l4xx_hal_flash_ex.c **** #endif
1078:Drivers/STM32L4xx_HAL_Driver/Src/stm32l4xx_hal_flash_ex.c ****       else
1079:Drivers/STM32L4xx_HAL_Driver/Src/stm32l4xx_hal_flash_ex.c ****       {
1080:Drivers/STM32L4xx_HAL_Driver/Src/stm32l4xx_hal_flash_ex.c ****         /* Nothing to do */
1081:Drivers/STM32L4xx_HAL_Driver/Src/stm32l4xx_hal_flash_ex.c ****       }
1082:Drivers/STM32L4xx_HAL_Driver/Src/stm32l4xx_hal_flash_ex.c ****     }
1083:Drivers/STM32L4xx_HAL_Driver/Src/stm32l4xx_hal_flash_ex.c **** 
1084:Drivers/STM32L4xx_HAL_Driver/Src/stm32l4xx_hal_flash_ex.c ****     MODIFY_REG(FLASH->PCROP1ER, FLASH_PCROP1ER_PCROP_RDP, (PCROPConfig & FLASH_PCROP1ER_PCROP_RDP))
 1761              		.loc 1 1084 5
 1762 0100 144B     		ldr	r3, .L107+16
 1763 0102 9B6A     		ldr	r3, [r3, #40]
 1764 0104 23F00042 		bic	r2, r3, #-2147483648
 1765 0108 FB68     		ldr	r3, [r7, #12]
 1766 010a 03F00043 		and	r3, r3, #-2147483648
 1767 010e 1149     		ldr	r1, .L107+16
 1768 0110 1343     		orrs	r3, r3, r2
 1769 0112 8B62     		str	r3, [r1, #40]
1085:Drivers/STM32L4xx_HAL_Driver/Src/stm32l4xx_hal_flash_ex.c **** 
1086:Drivers/STM32L4xx_HAL_Driver/Src/stm32l4xx_hal_flash_ex.c ****     /* Set OPTSTRT Bit */
1087:Drivers/STM32L4xx_HAL_Driver/Src/stm32l4xx_hal_flash_ex.c ****     SET_BIT(FLASH->CR, FLASH_CR_OPTSTRT);
 1770              		.loc 1 1087 5
 1771 0114 0F4B     		ldr	r3, .L107+16
 1772 0116 5B69     		ldr	r3, [r3, #20]
 1773 0118 0E4A     		ldr	r2, .L107+16
 1774 011a 43F40033 		orr	r3, r3, #131072
 1775 011e 5361     		str	r3, [r2, #20]
1088:Drivers/STM32L4xx_HAL_Driver/Src/stm32l4xx_hal_flash_ex.c **** 
1089:Drivers/STM32L4xx_HAL_Driver/Src/stm32l4xx_hal_flash_ex.c ****     /* Wait for last operation to be completed */
1090:Drivers/STM32L4xx_HAL_Driver/Src/stm32l4xx_hal_flash_ex.c ****     status = FLASH_WaitForLastOperation((uint32_t)FLASH_TIMEOUT_VALUE);
ARM GAS  /tmp/ccZFOTRI.s 			page 51


 1776              		.loc 1 1090 14
 1777 0120 4CF25030 		movw	r0, #50000
 1778 0124 FFF7FEFF 		bl	FLASH_WaitForLastOperation
 1779 0128 0346     		mov	r3, r0
 1780 012a FB77     		strb	r3, [r7, #31]
1091:Drivers/STM32L4xx_HAL_Driver/Src/stm32l4xx_hal_flash_ex.c **** 
1092:Drivers/STM32L4xx_HAL_Driver/Src/stm32l4xx_hal_flash_ex.c ****     /* If the option byte program operation is completed, disable the OPTSTRT Bit */
1093:Drivers/STM32L4xx_HAL_Driver/Src/stm32l4xx_hal_flash_ex.c ****     CLEAR_BIT(FLASH->CR, FLASH_CR_OPTSTRT);
 1781              		.loc 1 1093 5
 1782 012c 094B     		ldr	r3, .L107+16
 1783 012e 5B69     		ldr	r3, [r3, #20]
 1784 0130 084A     		ldr	r2, .L107+16
 1785 0132 23F40033 		bic	r3, r3, #131072
 1786 0136 5361     		str	r3, [r2, #20]
 1787              	.L97:
1094:Drivers/STM32L4xx_HAL_Driver/Src/stm32l4xx_hal_flash_ex.c ****   }
1095:Drivers/STM32L4xx_HAL_Driver/Src/stm32l4xx_hal_flash_ex.c **** 
1096:Drivers/STM32L4xx_HAL_Driver/Src/stm32l4xx_hal_flash_ex.c ****   return status;
 1788              		.loc 1 1096 10
 1789 0138 FB7F     		ldrb	r3, [r7, #31]	@ zero_extendqisi2
1097:Drivers/STM32L4xx_HAL_Driver/Src/stm32l4xx_hal_flash_ex.c **** }
 1790              		.loc 1 1097 1
 1791 013a 1846     		mov	r0, r3
 1792 013c 2037     		adds	r7, r7, #32
 1793              	.LCFI56:
 1794              		.cfi_def_cfa_offset 8
 1795 013e BD46     		mov	sp, r7
 1796              	.LCFI57:
 1797              		.cfi_def_cfa_register 13
 1798              		@ sp needed
 1799 0140 80BD     		pop	{r7, pc}
 1800              	.L108:
 1801 0142 00BF     		.align	2
 1802              	.L107:
 1803 0144 00000140 		.word	1073807360
 1804 0148 E075FF1F 		.word	536835552
 1805 014c 00FEFF01 		.word	33553920
 1806 0150 00000808 		.word	134742016
 1807 0154 00200240 		.word	1073881088
 1808              		.cfi_endproc
 1809              	.LFE140:
 1811              		.section	.text.FLASH_OB_GetWRP,"ax",%progbits
 1812              		.align	1
 1813              		.syntax unified
 1814              		.thumb
 1815              		.thumb_func
 1816              		.fpu fpv4-sp-d16
 1818              	FLASH_OB_GetWRP:
 1819              	.LFB141:
1098:Drivers/STM32L4xx_HAL_Driver/Src/stm32l4xx_hal_flash_ex.c **** 
1099:Drivers/STM32L4xx_HAL_Driver/Src/stm32l4xx_hal_flash_ex.c **** /**
1100:Drivers/STM32L4xx_HAL_Driver/Src/stm32l4xx_hal_flash_ex.c ****   * @brief  Return the FLASH Write Protection Option Bytes value.
1101:Drivers/STM32L4xx_HAL_Driver/Src/stm32l4xx_hal_flash_ex.c ****   *
1102:Drivers/STM32L4xx_HAL_Driver/Src/stm32l4xx_hal_flash_ex.c ****   * @param[in]  WRPArea: specifies the area to be returned.
1103:Drivers/STM32L4xx_HAL_Driver/Src/stm32l4xx_hal_flash_ex.c ****   *          This parameter can be one of the following values:
1104:Drivers/STM32L4xx_HAL_Driver/Src/stm32l4xx_hal_flash_ex.c ****   *            @arg OB_WRPAREA_BANK1_AREAA: Flash Bank 1 Area A
1105:Drivers/STM32L4xx_HAL_Driver/Src/stm32l4xx_hal_flash_ex.c ****   *            @arg OB_WRPAREA_BANK1_AREAB: Flash Bank 1 Area B
ARM GAS  /tmp/ccZFOTRI.s 			page 52


1106:Drivers/STM32L4xx_HAL_Driver/Src/stm32l4xx_hal_flash_ex.c ****   *            @arg OB_WRPAREA_BANK2_AREAA: Flash Bank 2 Area A (don't apply to STM32L43x/STM32L44x
1107:Drivers/STM32L4xx_HAL_Driver/Src/stm32l4xx_hal_flash_ex.c ****   *            @arg OB_WRPAREA_BANK2_AREAB: Flash Bank 2 Area B (don't apply to STM32L43x/STM32L44x
1108:Drivers/STM32L4xx_HAL_Driver/Src/stm32l4xx_hal_flash_ex.c ****   *
1109:Drivers/STM32L4xx_HAL_Driver/Src/stm32l4xx_hal_flash_ex.c ****   * @param[out]  WRPStartOffset: specifies the address where to copied the start page
1110:Drivers/STM32L4xx_HAL_Driver/Src/stm32l4xx_hal_flash_ex.c ****   *                         of the write protected area
1111:Drivers/STM32L4xx_HAL_Driver/Src/stm32l4xx_hal_flash_ex.c ****   *
1112:Drivers/STM32L4xx_HAL_Driver/Src/stm32l4xx_hal_flash_ex.c ****   * @param[out]  WRDPEndOffset: specifies the address where to copied the end page of
1113:Drivers/STM32L4xx_HAL_Driver/Src/stm32l4xx_hal_flash_ex.c ****   *                        the write protected area
1114:Drivers/STM32L4xx_HAL_Driver/Src/stm32l4xx_hal_flash_ex.c ****   *
1115:Drivers/STM32L4xx_HAL_Driver/Src/stm32l4xx_hal_flash_ex.c ****   * @retval None
1116:Drivers/STM32L4xx_HAL_Driver/Src/stm32l4xx_hal_flash_ex.c ****   */
1117:Drivers/STM32L4xx_HAL_Driver/Src/stm32l4xx_hal_flash_ex.c **** static void FLASH_OB_GetWRP(uint32_t WRPArea, uint32_t * WRPStartOffset, uint32_t * WRDPEndOffset)
1118:Drivers/STM32L4xx_HAL_Driver/Src/stm32l4xx_hal_flash_ex.c **** {
 1820              		.loc 1 1118 1
 1821              		.cfi_startproc
 1822              		@ args = 0, pretend = 0, frame = 16
 1823              		@ frame_needed = 1, uses_anonymous_args = 0
 1824              		@ link register save eliminated.
 1825 0000 80B4     		push	{r7}
 1826              	.LCFI58:
 1827              		.cfi_def_cfa_offset 4
 1828              		.cfi_offset 7, -4
 1829 0002 85B0     		sub	sp, sp, #20
 1830              	.LCFI59:
 1831              		.cfi_def_cfa_offset 24
 1832 0004 00AF     		add	r7, sp, #0
 1833              	.LCFI60:
 1834              		.cfi_def_cfa_register 7
 1835 0006 F860     		str	r0, [r7, #12]
 1836 0008 B960     		str	r1, [r7, #8]
 1837 000a 7A60     		str	r2, [r7, #4]
1119:Drivers/STM32L4xx_HAL_Driver/Src/stm32l4xx_hal_flash_ex.c ****   /* Get the configuration of the write protected area */
1120:Drivers/STM32L4xx_HAL_Driver/Src/stm32l4xx_hal_flash_ex.c ****   if(WRPArea == OB_WRPAREA_BANK1_AREAA)
 1838              		.loc 1 1120 5
 1839 000c FB68     		ldr	r3, [r7, #12]
 1840 000e 002B     		cmp	r3, #0
 1841 0010 0BD1     		bne	.L110
1121:Drivers/STM32L4xx_HAL_Driver/Src/stm32l4xx_hal_flash_ex.c ****   {
1122:Drivers/STM32L4xx_HAL_Driver/Src/stm32l4xx_hal_flash_ex.c ****     *WRPStartOffset = READ_BIT(FLASH->WRP1AR, FLASH_WRP1AR_WRP1A_STRT);
 1842              		.loc 1 1122 23
 1843 0012 1F4B     		ldr	r3, .L115
 1844 0014 DB6A     		ldr	r3, [r3, #44]
 1845 0016 DAB2     		uxtb	r2, r3
 1846              		.loc 1 1122 21
 1847 0018 BB68     		ldr	r3, [r7, #8]
 1848 001a 1A60     		str	r2, [r3]
1123:Drivers/STM32L4xx_HAL_Driver/Src/stm32l4xx_hal_flash_ex.c ****     *WRDPEndOffset = (READ_BIT(FLASH->WRP1AR, FLASH_WRP1AR_WRP1A_END) >> 16);
 1849              		.loc 1 1123 23
 1850 001c 1C4B     		ldr	r3, .L115
 1851 001e DB6A     		ldr	r3, [r3, #44]
 1852              		.loc 1 1123 71
 1853 0020 1B0C     		lsrs	r3, r3, #16
 1854 0022 DAB2     		uxtb	r2, r3
 1855              		.loc 1 1123 20
 1856 0024 7B68     		ldr	r3, [r7, #4]
 1857 0026 1A60     		str	r2, [r3]
1124:Drivers/STM32L4xx_HAL_Driver/Src/stm32l4xx_hal_flash_ex.c ****   }
ARM GAS  /tmp/ccZFOTRI.s 			page 53


1125:Drivers/STM32L4xx_HAL_Driver/Src/stm32l4xx_hal_flash_ex.c ****   else if(WRPArea == OB_WRPAREA_BANK1_AREAB)
1126:Drivers/STM32L4xx_HAL_Driver/Src/stm32l4xx_hal_flash_ex.c ****   {
1127:Drivers/STM32L4xx_HAL_Driver/Src/stm32l4xx_hal_flash_ex.c ****     *WRPStartOffset = READ_BIT(FLASH->WRP1BR, FLASH_WRP1BR_WRP1B_STRT);
1128:Drivers/STM32L4xx_HAL_Driver/Src/stm32l4xx_hal_flash_ex.c ****     *WRDPEndOffset = (READ_BIT(FLASH->WRP1BR, FLASH_WRP1BR_WRP1B_END) >> 16);
1129:Drivers/STM32L4xx_HAL_Driver/Src/stm32l4xx_hal_flash_ex.c ****   }
1130:Drivers/STM32L4xx_HAL_Driver/Src/stm32l4xx_hal_flash_ex.c **** #if defined (STM32L471xx) || defined (STM32L475xx) || defined (STM32L476xx) || defined (STM32L485xx
1131:Drivers/STM32L4xx_HAL_Driver/Src/stm32l4xx_hal_flash_ex.c ****     defined (STM32L496xx) || defined (STM32L4A6xx) || \
1132:Drivers/STM32L4xx_HAL_Driver/Src/stm32l4xx_hal_flash_ex.c ****     defined (STM32L4R5xx) || defined (STM32L4R7xx) || defined (STM32L4R9xx) || defined (STM32L4S5xx
1133:Drivers/STM32L4xx_HAL_Driver/Src/stm32l4xx_hal_flash_ex.c ****   else if(WRPArea == OB_WRPAREA_BANK2_AREAA)
1134:Drivers/STM32L4xx_HAL_Driver/Src/stm32l4xx_hal_flash_ex.c ****   {
1135:Drivers/STM32L4xx_HAL_Driver/Src/stm32l4xx_hal_flash_ex.c ****     *WRPStartOffset = READ_BIT(FLASH->WRP2AR, FLASH_WRP2AR_WRP2A_STRT);
1136:Drivers/STM32L4xx_HAL_Driver/Src/stm32l4xx_hal_flash_ex.c ****     *WRDPEndOffset = (READ_BIT(FLASH->WRP2AR, FLASH_WRP2AR_WRP2A_END) >> 16);
1137:Drivers/STM32L4xx_HAL_Driver/Src/stm32l4xx_hal_flash_ex.c ****   }
1138:Drivers/STM32L4xx_HAL_Driver/Src/stm32l4xx_hal_flash_ex.c ****   else if(WRPArea == OB_WRPAREA_BANK2_AREAB)
1139:Drivers/STM32L4xx_HAL_Driver/Src/stm32l4xx_hal_flash_ex.c ****   {
1140:Drivers/STM32L4xx_HAL_Driver/Src/stm32l4xx_hal_flash_ex.c ****     *WRPStartOffset = READ_BIT(FLASH->WRP2BR, FLASH_WRP2BR_WRP2B_STRT);
1141:Drivers/STM32L4xx_HAL_Driver/Src/stm32l4xx_hal_flash_ex.c ****     *WRDPEndOffset = (READ_BIT(FLASH->WRP2BR, FLASH_WRP2BR_WRP2B_END) >> 16);
1142:Drivers/STM32L4xx_HAL_Driver/Src/stm32l4xx_hal_flash_ex.c ****   }
1143:Drivers/STM32L4xx_HAL_Driver/Src/stm32l4xx_hal_flash_ex.c **** #endif
1144:Drivers/STM32L4xx_HAL_Driver/Src/stm32l4xx_hal_flash_ex.c ****   else
1145:Drivers/STM32L4xx_HAL_Driver/Src/stm32l4xx_hal_flash_ex.c ****   {
1146:Drivers/STM32L4xx_HAL_Driver/Src/stm32l4xx_hal_flash_ex.c ****     /* Nothing to do */
1147:Drivers/STM32L4xx_HAL_Driver/Src/stm32l4xx_hal_flash_ex.c ****   }
1148:Drivers/STM32L4xx_HAL_Driver/Src/stm32l4xx_hal_flash_ex.c **** }
 1858              		.loc 1 1148 1
 1859 0028 2BE0     		b	.L114
 1860              	.L110:
1125:Drivers/STM32L4xx_HAL_Driver/Src/stm32l4xx_hal_flash_ex.c ****   {
 1861              		.loc 1 1125 10
 1862 002a FB68     		ldr	r3, [r7, #12]
 1863 002c 012B     		cmp	r3, #1
 1864 002e 0BD1     		bne	.L112
1127:Drivers/STM32L4xx_HAL_Driver/Src/stm32l4xx_hal_flash_ex.c ****     *WRDPEndOffset = (READ_BIT(FLASH->WRP1BR, FLASH_WRP1BR_WRP1B_END) >> 16);
 1865              		.loc 1 1127 23
 1866 0030 174B     		ldr	r3, .L115
 1867 0032 1B6B     		ldr	r3, [r3, #48]
 1868 0034 DAB2     		uxtb	r2, r3
1127:Drivers/STM32L4xx_HAL_Driver/Src/stm32l4xx_hal_flash_ex.c ****     *WRDPEndOffset = (READ_BIT(FLASH->WRP1BR, FLASH_WRP1BR_WRP1B_END) >> 16);
 1869              		.loc 1 1127 21
 1870 0036 BB68     		ldr	r3, [r7, #8]
 1871 0038 1A60     		str	r2, [r3]
1128:Drivers/STM32L4xx_HAL_Driver/Src/stm32l4xx_hal_flash_ex.c ****   }
 1872              		.loc 1 1128 23
 1873 003a 154B     		ldr	r3, .L115
 1874 003c 1B6B     		ldr	r3, [r3, #48]
1128:Drivers/STM32L4xx_HAL_Driver/Src/stm32l4xx_hal_flash_ex.c ****   }
 1875              		.loc 1 1128 71
 1876 003e 1B0C     		lsrs	r3, r3, #16
 1877 0040 DAB2     		uxtb	r2, r3
1128:Drivers/STM32L4xx_HAL_Driver/Src/stm32l4xx_hal_flash_ex.c ****   }
 1878              		.loc 1 1128 20
 1879 0042 7B68     		ldr	r3, [r7, #4]
 1880 0044 1A60     		str	r2, [r3]
 1881              		.loc 1 1148 1
 1882 0046 1CE0     		b	.L114
 1883              	.L112:
1133:Drivers/STM32L4xx_HAL_Driver/Src/stm32l4xx_hal_flash_ex.c ****   {
ARM GAS  /tmp/ccZFOTRI.s 			page 54


 1884              		.loc 1 1133 10
 1885 0048 FB68     		ldr	r3, [r7, #12]
 1886 004a 022B     		cmp	r3, #2
 1887 004c 0BD1     		bne	.L113
1135:Drivers/STM32L4xx_HAL_Driver/Src/stm32l4xx_hal_flash_ex.c ****     *WRDPEndOffset = (READ_BIT(FLASH->WRP2AR, FLASH_WRP2AR_WRP2A_END) >> 16);
 1888              		.loc 1 1135 23
 1889 004e 104B     		ldr	r3, .L115
 1890 0050 DB6C     		ldr	r3, [r3, #76]
 1891 0052 DAB2     		uxtb	r2, r3
1135:Drivers/STM32L4xx_HAL_Driver/Src/stm32l4xx_hal_flash_ex.c ****     *WRDPEndOffset = (READ_BIT(FLASH->WRP2AR, FLASH_WRP2AR_WRP2A_END) >> 16);
 1892              		.loc 1 1135 21
 1893 0054 BB68     		ldr	r3, [r7, #8]
 1894 0056 1A60     		str	r2, [r3]
1136:Drivers/STM32L4xx_HAL_Driver/Src/stm32l4xx_hal_flash_ex.c ****   }
 1895              		.loc 1 1136 23
 1896 0058 0D4B     		ldr	r3, .L115
 1897 005a DB6C     		ldr	r3, [r3, #76]
1136:Drivers/STM32L4xx_HAL_Driver/Src/stm32l4xx_hal_flash_ex.c ****   }
 1898              		.loc 1 1136 71
 1899 005c 1B0C     		lsrs	r3, r3, #16
 1900 005e DAB2     		uxtb	r2, r3
1136:Drivers/STM32L4xx_HAL_Driver/Src/stm32l4xx_hal_flash_ex.c ****   }
 1901              		.loc 1 1136 20
 1902 0060 7B68     		ldr	r3, [r7, #4]
 1903 0062 1A60     		str	r2, [r3]
 1904              		.loc 1 1148 1
 1905 0064 0DE0     		b	.L114
 1906              	.L113:
1138:Drivers/STM32L4xx_HAL_Driver/Src/stm32l4xx_hal_flash_ex.c ****   {
 1907              		.loc 1 1138 10
 1908 0066 FB68     		ldr	r3, [r7, #12]
 1909 0068 042B     		cmp	r3, #4
 1910 006a 0AD1     		bne	.L114
1140:Drivers/STM32L4xx_HAL_Driver/Src/stm32l4xx_hal_flash_ex.c ****     *WRDPEndOffset = (READ_BIT(FLASH->WRP2BR, FLASH_WRP2BR_WRP2B_END) >> 16);
 1911              		.loc 1 1140 23
 1912 006c 084B     		ldr	r3, .L115
 1913 006e 1B6D     		ldr	r3, [r3, #80]
 1914 0070 DAB2     		uxtb	r2, r3
1140:Drivers/STM32L4xx_HAL_Driver/Src/stm32l4xx_hal_flash_ex.c ****     *WRDPEndOffset = (READ_BIT(FLASH->WRP2BR, FLASH_WRP2BR_WRP2B_END) >> 16);
 1915              		.loc 1 1140 21
 1916 0072 BB68     		ldr	r3, [r7, #8]
 1917 0074 1A60     		str	r2, [r3]
1141:Drivers/STM32L4xx_HAL_Driver/Src/stm32l4xx_hal_flash_ex.c ****   }
 1918              		.loc 1 1141 23
 1919 0076 064B     		ldr	r3, .L115
 1920 0078 1B6D     		ldr	r3, [r3, #80]
1141:Drivers/STM32L4xx_HAL_Driver/Src/stm32l4xx_hal_flash_ex.c ****   }
 1921              		.loc 1 1141 71
 1922 007a 1B0C     		lsrs	r3, r3, #16
 1923 007c DAB2     		uxtb	r2, r3
1141:Drivers/STM32L4xx_HAL_Driver/Src/stm32l4xx_hal_flash_ex.c ****   }
 1924              		.loc 1 1141 20
 1925 007e 7B68     		ldr	r3, [r7, #4]
 1926 0080 1A60     		str	r2, [r3]
 1927              	.L114:
 1928              		.loc 1 1148 1
 1929 0082 00BF     		nop
ARM GAS  /tmp/ccZFOTRI.s 			page 55


 1930 0084 1437     		adds	r7, r7, #20
 1931              	.LCFI61:
 1932              		.cfi_def_cfa_offset 4
 1933 0086 BD46     		mov	sp, r7
 1934              	.LCFI62:
 1935              		.cfi_def_cfa_register 13
 1936              		@ sp needed
 1937 0088 5DF8047B 		ldr	r7, [sp], #4
 1938              	.LCFI63:
 1939              		.cfi_restore 7
 1940              		.cfi_def_cfa_offset 0
 1941 008c 7047     		bx	lr
 1942              	.L116:
 1943 008e 00BF     		.align	2
 1944              	.L115:
 1945 0090 00200240 		.word	1073881088
 1946              		.cfi_endproc
 1947              	.LFE141:
 1949              		.section	.text.FLASH_OB_GetRDP,"ax",%progbits
 1950              		.align	1
 1951              		.syntax unified
 1952              		.thumb
 1953              		.thumb_func
 1954              		.fpu fpv4-sp-d16
 1956              	FLASH_OB_GetRDP:
 1957              	.LFB142:
1149:Drivers/STM32L4xx_HAL_Driver/Src/stm32l4xx_hal_flash_ex.c **** 
1150:Drivers/STM32L4xx_HAL_Driver/Src/stm32l4xx_hal_flash_ex.c **** /**
1151:Drivers/STM32L4xx_HAL_Driver/Src/stm32l4xx_hal_flash_ex.c ****   * @brief  Return the FLASH Read Protection level.
1152:Drivers/STM32L4xx_HAL_Driver/Src/stm32l4xx_hal_flash_ex.c ****   * @retval FLASH ReadOut Protection Status:
1153:Drivers/STM32L4xx_HAL_Driver/Src/stm32l4xx_hal_flash_ex.c ****   *         This return value can be one of the following values:
1154:Drivers/STM32L4xx_HAL_Driver/Src/stm32l4xx_hal_flash_ex.c ****   *            @arg OB_RDP_LEVEL_0: No protection
1155:Drivers/STM32L4xx_HAL_Driver/Src/stm32l4xx_hal_flash_ex.c ****   *            @arg OB_RDP_LEVEL_1: Read protection of the memory
1156:Drivers/STM32L4xx_HAL_Driver/Src/stm32l4xx_hal_flash_ex.c ****   *            @arg OB_RDP_LEVEL_2: Full chip protection
1157:Drivers/STM32L4xx_HAL_Driver/Src/stm32l4xx_hal_flash_ex.c ****   */
1158:Drivers/STM32L4xx_HAL_Driver/Src/stm32l4xx_hal_flash_ex.c **** static uint32_t FLASH_OB_GetRDP(void)
1159:Drivers/STM32L4xx_HAL_Driver/Src/stm32l4xx_hal_flash_ex.c **** {
 1958              		.loc 1 1159 1
 1959              		.cfi_startproc
 1960              		@ args = 0, pretend = 0, frame = 8
 1961              		@ frame_needed = 1, uses_anonymous_args = 0
 1962              		@ link register save eliminated.
 1963 0000 80B4     		push	{r7}
 1964              	.LCFI64:
 1965              		.cfi_def_cfa_offset 4
 1966              		.cfi_offset 7, -4
 1967 0002 83B0     		sub	sp, sp, #12
 1968              	.LCFI65:
 1969              		.cfi_def_cfa_offset 16
 1970 0004 00AF     		add	r7, sp, #0
 1971              	.LCFI66:
 1972              		.cfi_def_cfa_register 7
1160:Drivers/STM32L4xx_HAL_Driver/Src/stm32l4xx_hal_flash_ex.c ****   uint32_t rdp_level = READ_BIT(FLASH->OPTR, FLASH_OPTR_RDP);
 1973              		.loc 1 1160 24
 1974 0006 0A4B     		ldr	r3, .L120
 1975 0008 1B6A     		ldr	r3, [r3, #32]
 1976              		.loc 1 1160 12
ARM GAS  /tmp/ccZFOTRI.s 			page 56


 1977 000a DBB2     		uxtb	r3, r3
 1978 000c 7B60     		str	r3, [r7, #4]
1161:Drivers/STM32L4xx_HAL_Driver/Src/stm32l4xx_hal_flash_ex.c **** 
1162:Drivers/STM32L4xx_HAL_Driver/Src/stm32l4xx_hal_flash_ex.c ****   if ((rdp_level != OB_RDP_LEVEL_0) && (rdp_level != OB_RDP_LEVEL_2))
 1979              		.loc 1 1162 6
 1980 000e 7B68     		ldr	r3, [r7, #4]
 1981 0010 AA2B     		cmp	r3, #170
 1982 0012 04D0     		beq	.L118
 1983              		.loc 1 1162 37 discriminator 1
 1984 0014 7B68     		ldr	r3, [r7, #4]
 1985 0016 CC2B     		cmp	r3, #204
 1986 0018 01D0     		beq	.L118
1163:Drivers/STM32L4xx_HAL_Driver/Src/stm32l4xx_hal_flash_ex.c ****   {
1164:Drivers/STM32L4xx_HAL_Driver/Src/stm32l4xx_hal_flash_ex.c ****     return (OB_RDP_LEVEL_1);
 1987              		.loc 1 1164 12
 1988 001a BB23     		movs	r3, #187
 1989 001c 02E0     		b	.L119
 1990              	.L118:
1165:Drivers/STM32L4xx_HAL_Driver/Src/stm32l4xx_hal_flash_ex.c ****   }
1166:Drivers/STM32L4xx_HAL_Driver/Src/stm32l4xx_hal_flash_ex.c ****   else
1167:Drivers/STM32L4xx_HAL_Driver/Src/stm32l4xx_hal_flash_ex.c ****   {
1168:Drivers/STM32L4xx_HAL_Driver/Src/stm32l4xx_hal_flash_ex.c ****     return (READ_BIT(FLASH->OPTR, FLASH_OPTR_RDP));
 1991              		.loc 1 1168 13
 1992 001e 044B     		ldr	r3, .L120
 1993 0020 1B6A     		ldr	r3, [r3, #32]
 1994 0022 DBB2     		uxtb	r3, r3
 1995              	.L119:
1169:Drivers/STM32L4xx_HAL_Driver/Src/stm32l4xx_hal_flash_ex.c ****   }
1170:Drivers/STM32L4xx_HAL_Driver/Src/stm32l4xx_hal_flash_ex.c **** }
 1996              		.loc 1 1170 1
 1997 0024 1846     		mov	r0, r3
 1998 0026 0C37     		adds	r7, r7, #12
 1999              	.LCFI67:
 2000              		.cfi_def_cfa_offset 4
 2001 0028 BD46     		mov	sp, r7
 2002              	.LCFI68:
 2003              		.cfi_def_cfa_register 13
 2004              		@ sp needed
 2005 002a 5DF8047B 		ldr	r7, [sp], #4
 2006              	.LCFI69:
 2007              		.cfi_restore 7
 2008              		.cfi_def_cfa_offset 0
 2009 002e 7047     		bx	lr
 2010              	.L121:
 2011              		.align	2
 2012              	.L120:
 2013 0030 00200240 		.word	1073881088
 2014              		.cfi_endproc
 2015              	.LFE142:
 2017              		.section	.text.FLASH_OB_GetUser,"ax",%progbits
 2018              		.align	1
 2019              		.syntax unified
 2020              		.thumb
 2021              		.thumb_func
 2022              		.fpu fpv4-sp-d16
 2024              	FLASH_OB_GetUser:
 2025              	.LFB143:
ARM GAS  /tmp/ccZFOTRI.s 			page 57


1171:Drivers/STM32L4xx_HAL_Driver/Src/stm32l4xx_hal_flash_ex.c **** 
1172:Drivers/STM32L4xx_HAL_Driver/Src/stm32l4xx_hal_flash_ex.c **** /**
1173:Drivers/STM32L4xx_HAL_Driver/Src/stm32l4xx_hal_flash_ex.c ****   * @brief  Return the FLASH User Option Byte value.
1174:Drivers/STM32L4xx_HAL_Driver/Src/stm32l4xx_hal_flash_ex.c ****   * @retval The FLASH User Option Bytes values:
1175:Drivers/STM32L4xx_HAL_Driver/Src/stm32l4xx_hal_flash_ex.c ****   *      For STM32L47x/STM32L48x devices :
1176:Drivers/STM32L4xx_HAL_Driver/Src/stm32l4xx_hal_flash_ex.c ****   *         BOR_LEV(Bit8-10), nRST_STOP(Bit12), nRST_STDBY(Bit13), nRST_SHDW(Bit14),
1177:Drivers/STM32L4xx_HAL_Driver/Src/stm32l4xx_hal_flash_ex.c ****   *         IWDG_SW(Bit16), IWDG_STOP(Bit17), IWDG_STDBY(Bit18), WWDG_SW(Bit19),
1178:Drivers/STM32L4xx_HAL_Driver/Src/stm32l4xx_hal_flash_ex.c ****   *         BFB2(Bit20), DUALBANK(Bit21), nBOOT1(Bit23), SRAM2_PE(Bit24) and SRAM2_RST(Bit25).
1179:Drivers/STM32L4xx_HAL_Driver/Src/stm32l4xx_hal_flash_ex.c ****   *      For STM32L43x/STM32L44x devices :
1180:Drivers/STM32L4xx_HAL_Driver/Src/stm32l4xx_hal_flash_ex.c ****   *         BOR_LEV(Bit8-10), nRST_STOP(Bit12), nRST_STDBY(Bit13), nRST_SHDW(Bit14),
1181:Drivers/STM32L4xx_HAL_Driver/Src/stm32l4xx_hal_flash_ex.c ****   *         IWDG_SW(Bit16), IWDG_STOP(Bit17), IWDG_STDBY(Bit18), WWDG_SW(Bit19),
1182:Drivers/STM32L4xx_HAL_Driver/Src/stm32l4xx_hal_flash_ex.c ****   *         nBOOT1(Bit23), SRAM2_PE(Bit24), SRAM2_RST(Bit25), nSWBOOT0(Bit26) and nBOOT0(Bit27).
1183:Drivers/STM32L4xx_HAL_Driver/Src/stm32l4xx_hal_flash_ex.c ****   */
1184:Drivers/STM32L4xx_HAL_Driver/Src/stm32l4xx_hal_flash_ex.c **** static uint32_t FLASH_OB_GetUser(void)
1185:Drivers/STM32L4xx_HAL_Driver/Src/stm32l4xx_hal_flash_ex.c **** {
 2026              		.loc 1 1185 1
 2027              		.cfi_startproc
 2028              		@ args = 0, pretend = 0, frame = 8
 2029              		@ frame_needed = 1, uses_anonymous_args = 0
 2030              		@ link register save eliminated.
 2031 0000 80B4     		push	{r7}
 2032              	.LCFI70:
 2033              		.cfi_def_cfa_offset 4
 2034              		.cfi_offset 7, -4
 2035 0002 83B0     		sub	sp, sp, #12
 2036              	.LCFI71:
 2037              		.cfi_def_cfa_offset 16
 2038 0004 00AF     		add	r7, sp, #0
 2039              	.LCFI72:
 2040              		.cfi_def_cfa_register 7
1186:Drivers/STM32L4xx_HAL_Driver/Src/stm32l4xx_hal_flash_ex.c ****   uint32_t user_config = READ_REG(FLASH->OPTR);
 2041              		.loc 1 1186 26
 2042 0006 074B     		ldr	r3, .L124
 2043              		.loc 1 1186 12
 2044 0008 1B6A     		ldr	r3, [r3, #32]
 2045 000a 7B60     		str	r3, [r7, #4]
1187:Drivers/STM32L4xx_HAL_Driver/Src/stm32l4xx_hal_flash_ex.c ****   CLEAR_BIT(user_config, FLASH_OPTR_RDP);
 2046              		.loc 1 1187 3
 2047 000c 7B68     		ldr	r3, [r7, #4]
 2048 000e 23F0FF03 		bic	r3, r3, #255
 2049 0012 7B60     		str	r3, [r7, #4]
1188:Drivers/STM32L4xx_HAL_Driver/Src/stm32l4xx_hal_flash_ex.c **** 
1189:Drivers/STM32L4xx_HAL_Driver/Src/stm32l4xx_hal_flash_ex.c ****   return user_config;
 2050              		.loc 1 1189 10
 2051 0014 7B68     		ldr	r3, [r7, #4]
1190:Drivers/STM32L4xx_HAL_Driver/Src/stm32l4xx_hal_flash_ex.c **** }
 2052              		.loc 1 1190 1
 2053 0016 1846     		mov	r0, r3
 2054 0018 0C37     		adds	r7, r7, #12
 2055              	.LCFI73:
 2056              		.cfi_def_cfa_offset 4
 2057 001a BD46     		mov	sp, r7
 2058              	.LCFI74:
 2059              		.cfi_def_cfa_register 13
 2060              		@ sp needed
 2061 001c 5DF8047B 		ldr	r7, [sp], #4
 2062              	.LCFI75:
ARM GAS  /tmp/ccZFOTRI.s 			page 58


 2063              		.cfi_restore 7
 2064              		.cfi_def_cfa_offset 0
 2065 0020 7047     		bx	lr
 2066              	.L125:
 2067 0022 00BF     		.align	2
 2068              	.L124:
 2069 0024 00200240 		.word	1073881088
 2070              		.cfi_endproc
 2071              	.LFE143:
 2073              		.section	.text.FLASH_OB_GetPCROP,"ax",%progbits
 2074              		.align	1
 2075              		.syntax unified
 2076              		.thumb
 2077              		.thumb_func
 2078              		.fpu fpv4-sp-d16
 2080              	FLASH_OB_GetPCROP:
 2081              	.LFB144:
1191:Drivers/STM32L4xx_HAL_Driver/Src/stm32l4xx_hal_flash_ex.c **** 
1192:Drivers/STM32L4xx_HAL_Driver/Src/stm32l4xx_hal_flash_ex.c **** /**
1193:Drivers/STM32L4xx_HAL_Driver/Src/stm32l4xx_hal_flash_ex.c ****   * @brief  Return the FLASH Write Protection Option Bytes value.
1194:Drivers/STM32L4xx_HAL_Driver/Src/stm32l4xx_hal_flash_ex.c ****   *
1195:Drivers/STM32L4xx_HAL_Driver/Src/stm32l4xx_hal_flash_ex.c ****   * @param PCROPConfig [inout]: specifies the configuration (Bank to be configured and PCROP_RDP op
1196:Drivers/STM32L4xx_HAL_Driver/Src/stm32l4xx_hal_flash_ex.c ****   *          This parameter must be a combination of FLASH_BANK_1 or FLASH_BANK_2
1197:Drivers/STM32L4xx_HAL_Driver/Src/stm32l4xx_hal_flash_ex.c ****   *          with OB_PCROP_RDP_NOT_ERASE or OB_PCROP_RDP_ERASE
1198:Drivers/STM32L4xx_HAL_Driver/Src/stm32l4xx_hal_flash_ex.c ****   *
1199:Drivers/STM32L4xx_HAL_Driver/Src/stm32l4xx_hal_flash_ex.c ****   * @param PCROPStartAddr [out]: specifies the address where to copied the start address
1200:Drivers/STM32L4xx_HAL_Driver/Src/stm32l4xx_hal_flash_ex.c ****   *                         of the Proprietary code readout protection
1201:Drivers/STM32L4xx_HAL_Driver/Src/stm32l4xx_hal_flash_ex.c ****   *
1202:Drivers/STM32L4xx_HAL_Driver/Src/stm32l4xx_hal_flash_ex.c ****   * @param PCROPEndAddr [out]: specifies the address where to copied the end address of
1203:Drivers/STM32L4xx_HAL_Driver/Src/stm32l4xx_hal_flash_ex.c ****   *                       the Proprietary code readout protection
1204:Drivers/STM32L4xx_HAL_Driver/Src/stm32l4xx_hal_flash_ex.c ****   *
1205:Drivers/STM32L4xx_HAL_Driver/Src/stm32l4xx_hal_flash_ex.c ****   * @retval None
1206:Drivers/STM32L4xx_HAL_Driver/Src/stm32l4xx_hal_flash_ex.c ****   */
1207:Drivers/STM32L4xx_HAL_Driver/Src/stm32l4xx_hal_flash_ex.c **** static void FLASH_OB_GetPCROP(uint32_t * PCROPConfig, uint32_t * PCROPStartAddr, uint32_t * PCROPEn
1208:Drivers/STM32L4xx_HAL_Driver/Src/stm32l4xx_hal_flash_ex.c **** {
 2082              		.loc 1 1208 1
 2083              		.cfi_startproc
 2084              		@ args = 0, pretend = 0, frame = 32
 2085              		@ frame_needed = 1, uses_anonymous_args = 0
 2086              		@ link register save eliminated.
 2087 0000 80B4     		push	{r7}
 2088              	.LCFI76:
 2089              		.cfi_def_cfa_offset 4
 2090              		.cfi_offset 7, -4
 2091 0002 89B0     		sub	sp, sp, #36
 2092              	.LCFI77:
 2093              		.cfi_def_cfa_offset 40
 2094 0004 00AF     		add	r7, sp, #0
 2095              	.LCFI78:
 2096              		.cfi_def_cfa_register 7
 2097 0006 F860     		str	r0, [r7, #12]
 2098 0008 B960     		str	r1, [r7, #8]
 2099 000a 7A60     		str	r2, [r7, #4]
1209:Drivers/STM32L4xx_HAL_Driver/Src/stm32l4xx_hal_flash_ex.c ****   uint32_t reg_value;
1210:Drivers/STM32L4xx_HAL_Driver/Src/stm32l4xx_hal_flash_ex.c ****   uint32_t bank1_addr;
1211:Drivers/STM32L4xx_HAL_Driver/Src/stm32l4xx_hal_flash_ex.c **** #if defined (STM32L471xx) || defined (STM32L475xx) || defined (STM32L476xx) || defined (STM32L485xx
1212:Drivers/STM32L4xx_HAL_Driver/Src/stm32l4xx_hal_flash_ex.c ****     defined (STM32L496xx) || defined (STM32L4A6xx) || \
ARM GAS  /tmp/ccZFOTRI.s 			page 59


1213:Drivers/STM32L4xx_HAL_Driver/Src/stm32l4xx_hal_flash_ex.c ****     defined (STM32L4R5xx) || defined (STM32L4R7xx) || defined (STM32L4R9xx) || defined (STM32L4S5xx
1214:Drivers/STM32L4xx_HAL_Driver/Src/stm32l4xx_hal_flash_ex.c ****   uint32_t bank2_addr;
1215:Drivers/STM32L4xx_HAL_Driver/Src/stm32l4xx_hal_flash_ex.c **** #endif
1216:Drivers/STM32L4xx_HAL_Driver/Src/stm32l4xx_hal_flash_ex.c **** 
1217:Drivers/STM32L4xx_HAL_Driver/Src/stm32l4xx_hal_flash_ex.c **** #if defined (STM32L471xx) || defined (STM32L475xx) || defined (STM32L476xx) || defined (STM32L485xx
1218:Drivers/STM32L4xx_HAL_Driver/Src/stm32l4xx_hal_flash_ex.c ****     defined (STM32L496xx) || defined (STM32L4A6xx) || \
1219:Drivers/STM32L4xx_HAL_Driver/Src/stm32l4xx_hal_flash_ex.c ****     defined (STM32L4R5xx) || defined (STM32L4R7xx) || defined (STM32L4R9xx) || defined (STM32L4S5xx
1220:Drivers/STM32L4xx_HAL_Driver/Src/stm32l4xx_hal_flash_ex.c ****   /* Get the information about the bank swapping */
1221:Drivers/STM32L4xx_HAL_Driver/Src/stm32l4xx_hal_flash_ex.c ****   if (READ_BIT(SYSCFG->MEMRMP, SYSCFG_MEMRMP_FB_MODE) == 0U)
 2100              		.loc 1 1221 7
 2101 000c 3B4B     		ldr	r3, .L135
 2102 000e 1B68     		ldr	r3, [r3]
 2103 0010 03F48073 		and	r3, r3, #256
 2104              		.loc 1 1221 6
 2105 0014 002B     		cmp	r3, #0
 2106 0016 15D1     		bne	.L127
1222:Drivers/STM32L4xx_HAL_Driver/Src/stm32l4xx_hal_flash_ex.c ****   {
1223:Drivers/STM32L4xx_HAL_Driver/Src/stm32l4xx_hal_flash_ex.c ****     bank1_addr = FLASH_BASE;
 2107              		.loc 1 1223 16
 2108 0018 4FF00063 		mov	r3, #134217728
 2109 001c FB61     		str	r3, [r7, #28]
1224:Drivers/STM32L4xx_HAL_Driver/Src/stm32l4xx_hal_flash_ex.c ****     bank2_addr = FLASH_BASE + FLASH_BANK_SIZE;
 2110              		.loc 1 1224 31
 2111 001e 384B     		ldr	r3, .L135+4
 2112 0020 1B68     		ldr	r3, [r3]
 2113 0022 9BB2     		uxth	r3, r3
 2114              		.loc 1 1224 29
 2115 0024 4FF6FF72 		movw	r2, #65535
 2116 0028 9342     		cmp	r3, r2
 2117 002a 08D0     		beq	.L128
 2118              		.loc 1 1224 31 discriminator 1
 2119 002c 344B     		ldr	r3, .L135+4
 2120 002e 1B68     		ldr	r3, [r3]
 2121 0030 9B02     		lsls	r3, r3, #10
 2122 0032 5A08     		lsrs	r2, r3, #1
 2123 0034 334B     		ldr	r3, .L135+8
 2124 0036 1340     		ands	r3, r3, r2
 2125              		.loc 1 1224 29 discriminator 1
 2126 0038 03F10063 		add	r3, r3, #134217728
 2127 003c 00E0     		b	.L129
 2128              	.L128:
 2129              		.loc 1 1224 29 is_stmt 0 discriminator 2
 2130 003e 324B     		ldr	r3, .L135+12
 2131              	.L129:
 2132              		.loc 1 1224 16 is_stmt 1 discriminator 4
 2133 0040 BB61     		str	r3, [r7, #24]
 2134 0042 14E0     		b	.L130
 2135              	.L127:
1225:Drivers/STM32L4xx_HAL_Driver/Src/stm32l4xx_hal_flash_ex.c ****   }
1226:Drivers/STM32L4xx_HAL_Driver/Src/stm32l4xx_hal_flash_ex.c ****   else
1227:Drivers/STM32L4xx_HAL_Driver/Src/stm32l4xx_hal_flash_ex.c ****   {
1228:Drivers/STM32L4xx_HAL_Driver/Src/stm32l4xx_hal_flash_ex.c ****     bank1_addr = FLASH_BASE + FLASH_BANK_SIZE;
 2136              		.loc 1 1228 31
 2137 0044 2E4B     		ldr	r3, .L135+4
 2138 0046 1B68     		ldr	r3, [r3]
 2139 0048 9BB2     		uxth	r3, r3
 2140              		.loc 1 1228 29
ARM GAS  /tmp/ccZFOTRI.s 			page 60


 2141 004a 4FF6FF72 		movw	r2, #65535
 2142 004e 9342     		cmp	r3, r2
 2143 0050 08D0     		beq	.L131
 2144              		.loc 1 1228 31 discriminator 1
 2145 0052 2B4B     		ldr	r3, .L135+4
 2146 0054 1B68     		ldr	r3, [r3]
 2147 0056 9B02     		lsls	r3, r3, #10
 2148 0058 5A08     		lsrs	r2, r3, #1
 2149 005a 2A4B     		ldr	r3, .L135+8
 2150 005c 1340     		ands	r3, r3, r2
 2151              		.loc 1 1228 29 discriminator 1
 2152 005e 03F10063 		add	r3, r3, #134217728
 2153 0062 00E0     		b	.L132
 2154              	.L131:
 2155              		.loc 1 1228 29 is_stmt 0 discriminator 2
 2156 0064 284B     		ldr	r3, .L135+12
 2157              	.L132:
 2158              		.loc 1 1228 16 is_stmt 1 discriminator 4
 2159 0066 FB61     		str	r3, [r7, #28]
1229:Drivers/STM32L4xx_HAL_Driver/Src/stm32l4xx_hal_flash_ex.c ****     bank2_addr = FLASH_BASE;
 2160              		.loc 1 1229 16 discriminator 4
 2161 0068 4FF00063 		mov	r3, #134217728
 2162 006c BB61     		str	r3, [r7, #24]
 2163              	.L130:
1230:Drivers/STM32L4xx_HAL_Driver/Src/stm32l4xx_hal_flash_ex.c ****   }
1231:Drivers/STM32L4xx_HAL_Driver/Src/stm32l4xx_hal_flash_ex.c **** #else
1232:Drivers/STM32L4xx_HAL_Driver/Src/stm32l4xx_hal_flash_ex.c ****   bank1_addr = FLASH_BASE;
1233:Drivers/STM32L4xx_HAL_Driver/Src/stm32l4xx_hal_flash_ex.c **** #endif
1234:Drivers/STM32L4xx_HAL_Driver/Src/stm32l4xx_hal_flash_ex.c **** 
1235:Drivers/STM32L4xx_HAL_Driver/Src/stm32l4xx_hal_flash_ex.c **** #if defined (STM32L4R5xx) || defined (STM32L4R7xx) || defined (STM32L4R9xx) || defined (STM32L4S5xx
1236:Drivers/STM32L4xx_HAL_Driver/Src/stm32l4xx_hal_flash_ex.c ****   if (READ_BIT(FLASH->OPTR, FLASH_OPTR_DBANK) == 0U)
1237:Drivers/STM32L4xx_HAL_Driver/Src/stm32l4xx_hal_flash_ex.c ****   {
1238:Drivers/STM32L4xx_HAL_Driver/Src/stm32l4xx_hal_flash_ex.c ****     if(((*PCROPConfig) & FLASH_BANK_BOTH) == FLASH_BANK_1)
1239:Drivers/STM32L4xx_HAL_Driver/Src/stm32l4xx_hal_flash_ex.c ****     {
1240:Drivers/STM32L4xx_HAL_Driver/Src/stm32l4xx_hal_flash_ex.c ****       reg_value       = (READ_REG(FLASH->PCROP1SR) & FLASH_PCROP1SR_PCROP1_STRT);
1241:Drivers/STM32L4xx_HAL_Driver/Src/stm32l4xx_hal_flash_ex.c ****       *PCROPStartAddr = (reg_value << 4) + FLASH_BASE;
1242:Drivers/STM32L4xx_HAL_Driver/Src/stm32l4xx_hal_flash_ex.c **** 
1243:Drivers/STM32L4xx_HAL_Driver/Src/stm32l4xx_hal_flash_ex.c ****       reg_value     = (READ_REG(FLASH->PCROP1ER) & FLASH_PCROP1ER_PCROP1_END);
1244:Drivers/STM32L4xx_HAL_Driver/Src/stm32l4xx_hal_flash_ex.c ****       *PCROPEndAddr = (reg_value << 4) + FLASH_BASE + 0xFU;
1245:Drivers/STM32L4xx_HAL_Driver/Src/stm32l4xx_hal_flash_ex.c ****     }
1246:Drivers/STM32L4xx_HAL_Driver/Src/stm32l4xx_hal_flash_ex.c ****     else if(((*PCROPConfig) & FLASH_BANK_BOTH) == FLASH_BANK_2)
1247:Drivers/STM32L4xx_HAL_Driver/Src/stm32l4xx_hal_flash_ex.c ****     {
1248:Drivers/STM32L4xx_HAL_Driver/Src/stm32l4xx_hal_flash_ex.c ****       reg_value       = (READ_REG(FLASH->PCROP2SR) & FLASH_PCROP2SR_PCROP2_STRT);
1249:Drivers/STM32L4xx_HAL_Driver/Src/stm32l4xx_hal_flash_ex.c ****       *PCROPStartAddr = (reg_value << 4) + FLASH_BASE;
1250:Drivers/STM32L4xx_HAL_Driver/Src/stm32l4xx_hal_flash_ex.c **** 
1251:Drivers/STM32L4xx_HAL_Driver/Src/stm32l4xx_hal_flash_ex.c ****       reg_value     = (READ_REG(FLASH->PCROP2ER) & FLASH_PCROP2ER_PCROP2_END);
1252:Drivers/STM32L4xx_HAL_Driver/Src/stm32l4xx_hal_flash_ex.c ****       *PCROPEndAddr = (reg_value << 4) + FLASH_BASE + 0xFU;;
1253:Drivers/STM32L4xx_HAL_Driver/Src/stm32l4xx_hal_flash_ex.c ****     }
1254:Drivers/STM32L4xx_HAL_Driver/Src/stm32l4xx_hal_flash_ex.c ****     else
1255:Drivers/STM32L4xx_HAL_Driver/Src/stm32l4xx_hal_flash_ex.c ****     {
1256:Drivers/STM32L4xx_HAL_Driver/Src/stm32l4xx_hal_flash_ex.c ****       /* Nothing to do */
1257:Drivers/STM32L4xx_HAL_Driver/Src/stm32l4xx_hal_flash_ex.c ****     }
1258:Drivers/STM32L4xx_HAL_Driver/Src/stm32l4xx_hal_flash_ex.c ****   }
1259:Drivers/STM32L4xx_HAL_Driver/Src/stm32l4xx_hal_flash_ex.c ****   else
1260:Drivers/STM32L4xx_HAL_Driver/Src/stm32l4xx_hal_flash_ex.c **** #endif
1261:Drivers/STM32L4xx_HAL_Driver/Src/stm32l4xx_hal_flash_ex.c ****   {
1262:Drivers/STM32L4xx_HAL_Driver/Src/stm32l4xx_hal_flash_ex.c ****     if(((*PCROPConfig) & FLASH_BANK_BOTH) == FLASH_BANK_1)
ARM GAS  /tmp/ccZFOTRI.s 			page 61


 2164              		.loc 1 1262 10
 2165 006e FB68     		ldr	r3, [r7, #12]
 2166 0070 1B68     		ldr	r3, [r3]
 2167              		.loc 1 1262 24
 2168 0072 03F00303 		and	r3, r3, #3
 2169              		.loc 1 1262 7
 2170 0076 012B     		cmp	r3, #1
 2171 0078 15D1     		bne	.L133
1263:Drivers/STM32L4xx_HAL_Driver/Src/stm32l4xx_hal_flash_ex.c ****     {
1264:Drivers/STM32L4xx_HAL_Driver/Src/stm32l4xx_hal_flash_ex.c ****       reg_value       = (READ_REG(FLASH->PCROP1SR) & FLASH_PCROP1SR_PCROP1_STRT);
 2172              		.loc 1 1264 26
 2173 007a 244B     		ldr	r3, .L135+16
 2174 007c 5B6A     		ldr	r3, [r3, #36]
 2175              		.loc 1 1264 23
 2176 007e 9BB2     		uxth	r3, r3
 2177 0080 7B61     		str	r3, [r7, #20]
1265:Drivers/STM32L4xx_HAL_Driver/Src/stm32l4xx_hal_flash_ex.c ****       *PCROPStartAddr = (reg_value << 3) + bank1_addr;
 2178              		.loc 1 1265 36
 2179 0082 7B69     		ldr	r3, [r7, #20]
 2180 0084 DA00     		lsls	r2, r3, #3
 2181              		.loc 1 1265 42
 2182 0086 FB69     		ldr	r3, [r7, #28]
 2183 0088 1A44     		add	r2, r2, r3
 2184              		.loc 1 1265 23
 2185 008a BB68     		ldr	r3, [r7, #8]
 2186 008c 1A60     		str	r2, [r3]
1266:Drivers/STM32L4xx_HAL_Driver/Src/stm32l4xx_hal_flash_ex.c **** 
1267:Drivers/STM32L4xx_HAL_Driver/Src/stm32l4xx_hal_flash_ex.c ****       reg_value     = (READ_REG(FLASH->PCROP1ER) & FLASH_PCROP1ER_PCROP1_END);
 2187              		.loc 1 1267 24
 2188 008e 1F4B     		ldr	r3, .L135+16
 2189 0090 9B6A     		ldr	r3, [r3, #40]
 2190              		.loc 1 1267 21
 2191 0092 9BB2     		uxth	r3, r3
 2192 0094 7B61     		str	r3, [r7, #20]
1268:Drivers/STM32L4xx_HAL_Driver/Src/stm32l4xx_hal_flash_ex.c ****       *PCROPEndAddr = (reg_value << 3) + bank1_addr + 0x7U;
 2193              		.loc 1 1268 34
 2194 0096 7B69     		ldr	r3, [r7, #20]
 2195 0098 DA00     		lsls	r2, r3, #3
 2196              		.loc 1 1268 40
 2197 009a FB69     		ldr	r3, [r7, #28]
 2198 009c 1344     		add	r3, r3, r2
 2199              		.loc 1 1268 53
 2200 009e DA1D     		adds	r2, r3, #7
 2201              		.loc 1 1268 21
 2202 00a0 7B68     		ldr	r3, [r7, #4]
 2203 00a2 1A60     		str	r2, [r3]
 2204 00a4 1AE0     		b	.L134
 2205              	.L133:
1269:Drivers/STM32L4xx_HAL_Driver/Src/stm32l4xx_hal_flash_ex.c ****     }
1270:Drivers/STM32L4xx_HAL_Driver/Src/stm32l4xx_hal_flash_ex.c **** #if defined (STM32L471xx) || defined (STM32L475xx) || defined (STM32L476xx) || defined (STM32L485xx
1271:Drivers/STM32L4xx_HAL_Driver/Src/stm32l4xx_hal_flash_ex.c ****     defined (STM32L496xx) || defined (STM32L4A6xx) || \
1272:Drivers/STM32L4xx_HAL_Driver/Src/stm32l4xx_hal_flash_ex.c ****     defined (STM32L4R5xx) || defined (STM32L4R7xx) || defined (STM32L4R9xx) || defined (STM32L4S5xx
1273:Drivers/STM32L4xx_HAL_Driver/Src/stm32l4xx_hal_flash_ex.c ****     else if(((*PCROPConfig) & FLASH_BANK_BOTH) == FLASH_BANK_2)
 2206              		.loc 1 1273 15
 2207 00a6 FB68     		ldr	r3, [r7, #12]
 2208 00a8 1B68     		ldr	r3, [r3]
 2209              		.loc 1 1273 29
ARM GAS  /tmp/ccZFOTRI.s 			page 62


 2210 00aa 03F00303 		and	r3, r3, #3
 2211              		.loc 1 1273 12
 2212 00ae 022B     		cmp	r3, #2
 2213 00b0 14D1     		bne	.L134
1274:Drivers/STM32L4xx_HAL_Driver/Src/stm32l4xx_hal_flash_ex.c ****     {
1275:Drivers/STM32L4xx_HAL_Driver/Src/stm32l4xx_hal_flash_ex.c ****       reg_value       = (READ_REG(FLASH->PCROP2SR) & FLASH_PCROP2SR_PCROP2_STRT);
 2214              		.loc 1 1275 26
 2215 00b2 164B     		ldr	r3, .L135+16
 2216 00b4 5B6C     		ldr	r3, [r3, #68]
 2217              		.loc 1 1275 23
 2218 00b6 9BB2     		uxth	r3, r3
 2219 00b8 7B61     		str	r3, [r7, #20]
1276:Drivers/STM32L4xx_HAL_Driver/Src/stm32l4xx_hal_flash_ex.c ****       *PCROPStartAddr = (reg_value << 3) + bank2_addr;
 2220              		.loc 1 1276 36
 2221 00ba 7B69     		ldr	r3, [r7, #20]
 2222 00bc DA00     		lsls	r2, r3, #3
 2223              		.loc 1 1276 42
 2224 00be BB69     		ldr	r3, [r7, #24]
 2225 00c0 1A44     		add	r2, r2, r3
 2226              		.loc 1 1276 23
 2227 00c2 BB68     		ldr	r3, [r7, #8]
 2228 00c4 1A60     		str	r2, [r3]
1277:Drivers/STM32L4xx_HAL_Driver/Src/stm32l4xx_hal_flash_ex.c **** 
1278:Drivers/STM32L4xx_HAL_Driver/Src/stm32l4xx_hal_flash_ex.c ****       reg_value     = (READ_REG(FLASH->PCROP2ER) & FLASH_PCROP2ER_PCROP2_END);
 2229              		.loc 1 1278 24
 2230 00c6 114B     		ldr	r3, .L135+16
 2231 00c8 9B6C     		ldr	r3, [r3, #72]
 2232              		.loc 1 1278 21
 2233 00ca 9BB2     		uxth	r3, r3
 2234 00cc 7B61     		str	r3, [r7, #20]
1279:Drivers/STM32L4xx_HAL_Driver/Src/stm32l4xx_hal_flash_ex.c ****       *PCROPEndAddr = (reg_value << 3) + bank2_addr + 0x7U;
 2235              		.loc 1 1279 34
 2236 00ce 7B69     		ldr	r3, [r7, #20]
 2237 00d0 DA00     		lsls	r2, r3, #3
 2238              		.loc 1 1279 40
 2239 00d2 BB69     		ldr	r3, [r7, #24]
 2240 00d4 1344     		add	r3, r3, r2
 2241              		.loc 1 1279 53
 2242 00d6 DA1D     		adds	r2, r3, #7
 2243              		.loc 1 1279 21
 2244 00d8 7B68     		ldr	r3, [r7, #4]
 2245 00da 1A60     		str	r2, [r3]
 2246              	.L134:
1280:Drivers/STM32L4xx_HAL_Driver/Src/stm32l4xx_hal_flash_ex.c ****     }
1281:Drivers/STM32L4xx_HAL_Driver/Src/stm32l4xx_hal_flash_ex.c **** #endif
1282:Drivers/STM32L4xx_HAL_Driver/Src/stm32l4xx_hal_flash_ex.c ****     else
1283:Drivers/STM32L4xx_HAL_Driver/Src/stm32l4xx_hal_flash_ex.c ****     {
1284:Drivers/STM32L4xx_HAL_Driver/Src/stm32l4xx_hal_flash_ex.c ****       /* Nothing to do */
1285:Drivers/STM32L4xx_HAL_Driver/Src/stm32l4xx_hal_flash_ex.c ****     }
1286:Drivers/STM32L4xx_HAL_Driver/Src/stm32l4xx_hal_flash_ex.c ****   }
1287:Drivers/STM32L4xx_HAL_Driver/Src/stm32l4xx_hal_flash_ex.c **** 
1288:Drivers/STM32L4xx_HAL_Driver/Src/stm32l4xx_hal_flash_ex.c ****   *PCROPConfig |= (READ_REG(FLASH->PCROP1ER) & FLASH_PCROP1ER_PCROP_RDP);
 2247              		.loc 1 1288 20
 2248 00dc 0B4B     		ldr	r3, .L135+16
 2249 00de 9B6A     		ldr	r3, [r3, #40]
 2250              		.loc 1 1288 46
 2251 00e0 03F00042 		and	r2, r3, #-2147483648
ARM GAS  /tmp/ccZFOTRI.s 			page 63


 2252              		.loc 1 1288 16
 2253 00e4 FB68     		ldr	r3, [r7, #12]
 2254 00e6 1B68     		ldr	r3, [r3]
 2255 00e8 1A43     		orrs	r2, r2, r3
 2256 00ea FB68     		ldr	r3, [r7, #12]
 2257 00ec 1A60     		str	r2, [r3]
1289:Drivers/STM32L4xx_HAL_Driver/Src/stm32l4xx_hal_flash_ex.c **** }
 2258              		.loc 1 1289 1
 2259 00ee 00BF     		nop
 2260 00f0 2437     		adds	r7, r7, #36
 2261              	.LCFI79:
 2262              		.cfi_def_cfa_offset 4
 2263 00f2 BD46     		mov	sp, r7
 2264              	.LCFI80:
 2265              		.cfi_def_cfa_register 13
 2266              		@ sp needed
 2267 00f4 5DF8047B 		ldr	r7, [sp], #4
 2268              	.LCFI81:
 2269              		.cfi_restore 7
 2270              		.cfi_def_cfa_offset 0
 2271 00f8 7047     		bx	lr
 2272              	.L136:
 2273 00fa 00BF     		.align	2
 2274              	.L135:
 2275 00fc 00000140 		.word	1073807360
 2276 0100 E075FF1F 		.word	536835552
 2277 0104 00FEFF01 		.word	33553920
 2278 0108 00000808 		.word	134742016
 2279 010c 00200240 		.word	1073881088
 2280              		.cfi_endproc
 2281              	.LFE144:
 2283              		.text
 2284              	.Letext0:
 2285              		.file 2 "/home/hung/opt/xPacks/@gnu-mcu-eclipse/arm-none-eabi-gcc/8.2.1-1.7.1/.content/arm-none-ea
 2286              		.file 3 "/home/hung/opt/xPacks/@gnu-mcu-eclipse/arm-none-eabi-gcc/8.2.1-1.7.1/.content/arm-none-ea
 2287              		.file 4 "Drivers/CMSIS/Include/core_cm4.h"
 2288              		.file 5 "Drivers/CMSIS/Device/ST/STM32L4xx/Include/system_stm32l4xx.h"
 2289              		.file 6 "Drivers/CMSIS/Device/ST/STM32L4xx/Include/stm32l496xx.h"
 2290              		.file 7 "Drivers/STM32L4xx_HAL_Driver/Inc/stm32l4xx_hal_def.h"
 2291              		.file 8 "Drivers/STM32L4xx_HAL_Driver/Inc/stm32l4xx_hal_flash.h"
 2292              		.file 9 "Drivers/STM32L4xx_HAL_Driver/Inc/stm32l4xx_hal.h"
ARM GAS  /tmp/ccZFOTRI.s 			page 64

